--- !tapi-tbd
tbd-version:     4
targets:         [ arm64-ios, arm64e-ios ]
install-name:    '/usr/lib/libTelephonyCapabilities.dylib'
exports:
  - targets:         [ arm64-ios, arm64e-ios ]
    symbols:         [ __ZN12capabilities10programmer13kKeyProductIDE, __ZN12capabilities10programmer14commandTimeoutEv, 
                       __ZN12capabilities10programmer14connectTimeoutEv, __ZN12capabilities10programmer18kKeyCommandTimeoutE, 
                       __ZN12capabilities10programmer18kKeyConnectTimeoutE, __ZN12capabilities10programmer19connectAttemptCountEv, 
                       __ZN12capabilities10programmer23kKeyConnectAttemptCountE, 
                       __ZN12capabilities10programmer9productIDEv, __ZN12capabilities2ct10deviceNameEv, 
                       __ZN12capabilities2ct10supports5GEv, __ZN12capabilities2ct11supportsEOSEv, 
                       __ZN12capabilities2ct11supportsP2PEv, __ZN12capabilities2ct12kKeySARValueE, 
                       __ZN12capabilities2ct12supportsTEMSEv, __ZN12capabilities2ct12supportsVoNREv, 
                       __ZN12capabilities2ct13emulatedEMBMSEv, __ZN12capabilities2ct13supportsEMBMSEv, 
                       __ZN12capabilities2ct13supportsHydraEv, __ZN12capabilities2ct13supportsVoLTEEv, 
                       __ZN12capabilities2ct14kKeyDeviceNameE, __ZN12capabilities2ct14kKeySupports5GE, 
                       __ZN12capabilities2ct14supportsGeminiEv, __ZN12capabilities2ct14supportsStewieEv, 
                       __ZN12capabilities2ct15kKeySupportsEOSE, __ZN12capabilities2ct15kKeySupportsP2PE, 
                       __ZN12capabilities2ct15shouldAWDWakeAPEv, __ZN12capabilities2ct15supportedLPASVNEv, 
                       __ZN12capabilities2ct15supportsSequoiaEv, __ZN12capabilities2ct16getDeviceEvoTypeEv, 
                       __ZN12capabilities2ct16kKeySupportsTEMSE, __ZN12capabilities2ct16kKeySupportsVoNRE, 
                       __ZN12capabilities2ct16supportsCerberusEv, __ZN12capabilities2ct17basebandGlobalSKUEv, 
                       __ZN12capabilities2ct17dormancyWatchModeEv, __ZN12capabilities2ct17kKeyEmulatedEMBMSE, 
                       __ZN12capabilities2ct17kKeySupportsEMBMSE, __ZN12capabilities2ct17kKeySupportsHydraE, 
                       __ZN12capabilities2ct17kKeySupportsVoLTEE, __ZN12capabilities2ct17supports5GSlicingEv, 
                       __ZN12capabilities2ct17supportsCellRadioEv, __ZN12capabilities2ct17supportsLLFiltersEv, 
                       __ZN12capabilities2ct17supportsVoiceCallEv, __ZN12capabilities2ct18LASDRecordMaxCountEv, 
                       __ZN12capabilities2ct18defaultVinylSlotIDEv, __ZN12capabilities2ct18getRadioModuleTypeEv, 
                       __ZN12capabilities2ct18kKeySupportsGeminiE, __ZN12capabilities2ct18minFirmwareVersionEv, 
                       __ZN12capabilities2ct18supportsDynamicSIDEv, __ZN12capabilities2ct18supportsMeadowModeEv, 
                       __ZN12capabilities2ct18supportsP2PAsGizmoEv, __ZN12capabilities2ct18supportsP2PAsPhoneEv, 
                       __ZN12capabilities2ct18supportsPCOOptionsEv, __ZN12capabilities2ct18supportsWidgetModeEv, 
                       __ZN12capabilities2ct19LASDLocationTimeoutEv, __ZN12capabilities2ct19kKeyShouldAWDWakeAPE, 
                       __ZN12capabilities2ct19kKeySupportedLPASVNE, __ZN12capabilities2ct19kKeySupportsSequoiaE, 
                       __ZN12capabilities2ct19shouldEnableDesenseEv, __ZN12capabilities2ct19shouldSaveVinylInfoEv, 
                       __ZN12capabilities2ct19supportsEcoDataModeEv, __ZN12capabilities2ct19supportsHandoverPDNEv, 
                       __ZN12capabilities2ct19supportsSMSIMSStackEv, __ZN12capabilities2ct20kKeyGetDeviceEvoTypeE, 
                       __ZN12capabilities2ct20kKeySupportsCerberusE, __ZN12capabilities2ct20supportsCampOnlyModeEv, 
                       __ZN12capabilities2ct20supportsCarrierSpaceEv, __ZN12capabilities2ct20supportsDisableLPANREv, 
                       __ZN12capabilities2ct20supportsHiSpeedFilerEv, __ZN12capabilities2ct20supportsLLFiltersIMSEv, 
                       __ZN12capabilities2ct20supportsMidCallSRVCCEv, __ZN12capabilities2ct20supportsNewPhonebookEv, 
                       __ZN12capabilities2ct20supportsSARAveragingEv, __ZN12capabilities2ct20supportsWiFiSettingsEv, 
                       __ZN12capabilities2ct21debugIsGizmoWithVinylEv, __ZN12capabilities2ct21hardwareRequiresOMADMEv, 
                       __ZN12capabilities2ct21kKeyBasebandGlobalSKUE, __ZN12capabilities2ct21kKeyDormancyWatchModeE, 
                       __ZN12capabilities2ct21kKeySupports5GSlicingE, __ZN12capabilities2ct21kKeySupportsCellRadioE, 
                       __ZN12capabilities2ct21kKeySupportsLLFiltersE, __ZN12capabilities2ct21kKeySupportsVoiceCallE, 
                       __ZN12capabilities2ct21supportsBIPControllerEv, __ZN12capabilities2ct21supportsCapabilityAPNEv, 
                       __ZN12capabilities2ct21supportsCapabilitySIMEv, __ZN12capabilities2ct21supportsDERFileFormatEv, 
                       __ZN12capabilities2ct21supportsSHA2SignatureEv, __ZN12capabilities2ct21supportsVinylTestModeEv, 
                       __ZN12capabilities2ct21supportsWEAGeofencingEv, __ZN12capabilities2ct21supportsWirelessModemEv, 
                       __ZN12capabilities2ct22fieldTestAppIdentifierEv, __ZN12capabilities2ct22getCDMASettingsSupportEv, 
                       __ZN12capabilities2ct22getSupportedMTSMSTypesEv, __ZN12capabilities2ct22kKeyDefaultVinylSlotIDE, 
                       __ZN12capabilities2ct22kKeyGetRadioModuleTypeE, __ZN12capabilities2ct22kKeyLASDRecordMaxCountE, 
                       __ZN12capabilities2ct22kKeyMinFirmwareVersionE, __ZN12capabilities2ct22kKeySupportsDynamicSIDE, 
                       __ZN12capabilities2ct22kKeySupportsMeadowModeE, __ZN12capabilities2ct22kKeySupportsP2PAsGizmoE, 
                       __ZN12capabilities2ct22kKeySupportsP2PAsPhoneE, __ZN12capabilities2ct22kKeySupportsPCOOptionsE, 
                       __ZN12capabilities2ct22kKeySupportsWidgetModeE, __ZN12capabilities2ct22requireVinylManagerIndEv, 
                       __ZN12capabilities2ct22supportsBB2GMitigationEv, __ZN12capabilities2ct22supportsPrivateNetworkEv, 
                       __ZN12capabilities2ct22supportsSecurityStatusEv, __ZN12capabilities2ct22supportsThermalMonitorEv, 
                       __ZN12capabilities2ct22supportsThumperServiceEv, __ZN12capabilities2ct23dataOnlySingleSIMDeviceEv, 
                       __ZN12capabilities2ct23defaultDebugVinylSlotIDEv, __ZN12capabilities2ct23getAWDBasebandComponentEv, 
                       __ZN12capabilities2ct23getBasebandBootStrategyEv, __ZN12capabilities2ct23getCLTMInterfaceSupportEv, 
                       __ZN12capabilities2ct23getCarrierBundleBaseDirEv, __ZN12capabilities2ct23kKeyLASDLocationTimeoutE, 
                       __ZN12capabilities2ct23kKeyShouldEnableDesenseE, __ZN12capabilities2ct23kKeyShouldSaveVinylInfoE, 
                       __ZN12capabilities2ct23kKeySupportsEcoDataModeE, __ZN12capabilities2ct23kKeySupportsHandoverPDNE, 
                       __ZN12capabilities2ct23kKeySupportsSMSIMSStackE, __ZN12capabilities2ct23latestAndGreatestDeviceEv, 
                       __ZN12capabilities2ct23supportedVinylSlotCountEv, __ZN12capabilities2ct23supportsAsyncActivationEv, 
                       __ZN12capabilities2ct23supportsCambioModeQueryEv, __ZN12capabilities2ct23supportsDualPhysicalSIMEv, 
                       __ZN12capabilities2ct23supportsECDSASignaturesEv, __ZN12capabilities2ct23supportsLASDGSMDatabaseEv, 
                       __ZN12capabilities2ct23supportsQMIWakeUpForDFCEv, __ZN12capabilities2ct23supportsThumperSourcingEv, 
                       __ZN12capabilities2ct23supportsTurnOffCellularEv, __ZN12capabilities2ct24getSupportedMessageModesEv, 
                       __ZN12capabilities2ct24kKeySupportsCampOnlyModeE, __ZN12capabilities2ct24kKeySupportsCarrierSpaceE, 
                       __ZN12capabilities2ct24kKeySupportsDisableLPANRE, __ZN12capabilities2ct24kKeySupportsHiSpeedFilerE, 
                       __ZN12capabilities2ct24kKeySupportsLLFiltersIMSE, __ZN12capabilities2ct24kKeySupportsMidCallSRVCCE, 
                       __ZN12capabilities2ct24kKeySupportsNewPhonebookE, __ZN12capabilities2ct24kKeySupportsSARAveragingE, 
                       __ZN12capabilities2ct24kKeySupportsWiFiSettingsE, __ZN12capabilities2ct24shouldSendWiFiCallStatusEv, 
                       __ZN12capabilities2ct24supportedPDPContextCountEv, __ZN12capabilities2ct24supportsBatterySaverModeEv, 
                       __ZN12capabilities2ct24supportsCMASCampOnlyModeEv, __ZN12capabilities2ct24supportsExtendedLTEBandsEv, 
                       __ZN12capabilities2ct24supportsMultipleThumpersEv, __ZN12capabilities2ct24supportsNASCallEndReasonEv, 
                       __ZN12capabilities2ct24supportsSIMAPNSingleFileEv, __ZN12capabilities2ct24supportsSilenceAssertionEv, 
                       __ZN12capabilities2ct25kKeyDebugIsGizmoWithVinylE, __ZN12capabilities2ct25kKeyHardwareRequiresOMADME, 
                       __ZN12capabilities2ct25kKeySupportsBIPControllerE, __ZN12capabilities2ct25kKeySupportsCapabilityAPNE, 
                       __ZN12capabilities2ct25kKeySupportsCapabilitySIME, __ZN12capabilities2ct25kKeySupportsDERFileFormatE, 
                       __ZN12capabilities2ct25kKeySupportsSHA2SignatureE, __ZN12capabilities2ct25kKeySupportsVinylTestModeE, 
                       __ZN12capabilities2ct25kKeySupportsWEAGeofencingE, __ZN12capabilities2ct25kKeySupportsWirelessModemE, 
                       __ZN12capabilities2ct25requiresIMSFeatureMaskingEv, __ZN12capabilities2ct25supportsDataQMIExtensionsEv, 
                       __ZN12capabilities2ct25supportsNRFlowInformationEv, __ZN12capabilities2ct25supportsQualityIndicationEv, 
                       __ZN12capabilities2ct26defaultVinylCardTypeToGSMAEv, __ZN12capabilities2ct26getRUIMDeprecationStrategyEv, 
                       __ZN12capabilities2ct26kKeyFieldTestAppIdentifierE, __ZN12capabilities2ct26kKeyGetCDMASettingsSupportE, 
                       __ZN12capabilities2ct26kKeyRequireVinylManagerIndE, __ZN12capabilities2ct26kKeySupportsBB2GMitigationE, 
                       __ZN12capabilities2ct26kKeySupportsPrivateNetworkE, __ZN12capabilities2ct26kKeySupportsSecurityStatusE, 
                       __ZN12capabilities2ct26kKeySupportsThermalMonitorE, __ZN12capabilities2ct26kKeySupportsThumperServiceE, 
                       __ZN12capabilities2ct26supportsIPCInterfaceConfigEv, __ZN12capabilities2ct26supportsMultiClientDesenseEv, 
                       __ZN12capabilities2ct26supportsRemoteCellularPlanEv, __ZN12capabilities2ct26supportsSTKSendIMSRegEventEv, 
                       __ZN12capabilities2ct26supportsSetVoLTEAudioCodecEv, __ZN12capabilities2ct27getAntennaSwitchCommandTypeEv, 
                       __ZN12capabilities2ct27kKeyDataOnlySingleSIMDeviceE, __ZN12capabilities2ct27kKeyDefaultDebugVinylSlotIDE, 
                       __ZN12capabilities2ct27kKeyGetAWDBasebandComponentE, __ZN12capabilities2ct27kKeyGetBasebandBootStrategyE, 
                       __ZN12capabilities2ct27kKeyGetCLTMInterfaceSupportE, __ZN12capabilities2ct27kKeyGetCarrierBundleBaseDirE, 
                       __ZN12capabilities2ct27kKeyLatestAndGreatestDeviceE, __ZN12capabilities2ct27kKeySupportedVinylSlotCountE, 
                       __ZN12capabilities2ct27kKeySupportsAsyncActivationE, __ZN12capabilities2ct27kKeySupportsCambioModeQueryE, 
                       __ZN12capabilities2ct27kKeySupportsDualPhysicalSIME, __ZN12capabilities2ct27kKeySupportsECDSASignaturesE, 
                       __ZN12capabilities2ct27kKeySupportsLASDGSMDatabaseE, __ZN12capabilities2ct27kKeySupportsQMIWakeUpForDFCE, 
                       __ZN12capabilities2ct27kKeySupportsThumperSourcingE, __ZN12capabilities2ct27kKeySupportsTurnOffCellularE, 
                       __ZN12capabilities2ct27supportsCapabilityC2KDeviceEv, __ZN12capabilities2ct27supportsDisableICCIDCommandEv, 
                       __ZN12capabilities2ct27supportsEmptyNITZIndicationEv, __ZN12capabilities2ct27supportsExclusiveAssertionsEv, 
                       __ZN12capabilities2ct27supportsHOVirtualInterfacesEv, __ZN12capabilities2ct27supportsNanoRegistryDevicesEv, 
                       __ZN12capabilities2ct27supportsPCOForCambioTriggerEv, __ZN12capabilities2ct27supportsVegaInEmergencyModeEv, 
                       __ZN12capabilities2ct27supportsVinylFirmwareUpdateEv, __ZN12capabilities2ct28firmwarePreflightVinylSlotIDEv, 
                       __ZN12capabilities2ct28getSignalStrengthPersonalityEv, __ZN12capabilities2ct28kKeyShouldSendWiFiCallStatusE, 
                       __ZN12capabilities2ct28kKeySupportedPDPContextCountE, __ZN12capabilities2ct28kKeySupportsBatterySaverModeE, 
                       __ZN12capabilities2ct28kKeySupportsCMASCampOnlyModeE, __ZN12capabilities2ct28kKeySupportsExtendedLTEBandsE, 
                       __ZN12capabilities2ct28kKeySupportsMultipleThumpersE, __ZN12capabilities2ct28kKeySupportsNASCallEndReasonE, 
                       __ZN12capabilities2ct28kKeySupportsSIMAPNSingleFileE, __ZN12capabilities2ct28kKeySupportsSilenceAssertionE, 
                       __ZN12capabilities2ct28supports2StepDataCallBringUpEv, __ZN12capabilities2ct28supportsEmergencySoSOverCellEv, 
                       __ZN12capabilities2ct28supportsEnhancedLQMDataStallEv, __ZN12capabilities2ct28supportsNormalEmergencySetupEv, 
                       __ZN12capabilities2ct28supportsPacketFilterCallTypeEv, __ZN12capabilities2ct28supportsRegisteredIDSServiceEv, 
                       __ZN12capabilities2ct29getProvisioningProfileSupportEv, __ZN12capabilities2ct29kKeyRequiresIMSFeatureMaskingE, 
                       __ZN12capabilities2ct29kKeySupportsDataQMIExtensionsE, __ZN12capabilities2ct29kKeySupportsNRFlowInformationE, 
                       __ZN12capabilities2ct29kKeySupportsQualityIndicationE, __ZN12capabilities2ct29requiresIMSStatusUpdateInCSFBEv, 
                       __ZN12capabilities2ct29shouldRadioInitInAirplaneModeEv, __ZN12capabilities2ct29signalStrengthDisplayMaxValueEv, 
                       __ZN12capabilities2ct29supportsCapabilityeHRPDDeviceEv, __ZN12capabilities2ct29supportsDataPlanNotificationsEv, 
                       __ZN12capabilities2ct29supportsMultiphaseBundleSetupEv, __ZN12capabilities2ct29supportsRegulatoryRestrictionEv, 
                       __ZN12capabilities2ct29supportsSIMDetectionInterruptEv, __ZN12capabilities2ct29supportsSIMMomentaryPowerDownEv, 
                       __ZN12capabilities2ct29supportsThroughputEngineeringEv, __ZN12capabilities2ct30kKeyDefaultVinylCardTypeToGSMAE, 
                       __ZN12capabilities2ct30kKeyGetRUIMDeprecationStrategyE, __ZN12capabilities2ct30kKeySupportsIPCInterfaceConfigE, 
                       __ZN12capabilities2ct30kKeySupportsMultiClientDesenseE, __ZN12capabilities2ct30kKeySupportsRemoteCellularPlanE, 
                       __ZN12capabilities2ct30kKeySupportsSTKSendIMSRegEventE, __ZN12capabilities2ct30kKeySupportsSetVoLTEAudioCodecE, 
                       __ZN12capabilities2ct30supportsEmergencyQMIExtensionsEv, __ZN12capabilities2ct30supportsIncrementalNetworkScanEv, 
                       __ZN12capabilities2ct31callManagerSearchRoundsMaxValueEv, 
                       __ZN12capabilities2ct31integratedPDPStatisticsIntervalEv, 
                       __ZN12capabilities2ct31kKeyGetAntennaSwitchCommandTypeE, __ZN12capabilities2ct31kKeySupportsCapabilityC2KDeviceE, 
                       __ZN12capabilities2ct31kKeySupportsDisableICCIDCommandE, __ZN12capabilities2ct31kKeySupportsEmptyNITZIndicationE, 
                       __ZN12capabilities2ct31kKeySupportsExclusiveAssertionsE, __ZN12capabilities2ct31kKeySupportsHOVirtualInterfacesE, 
                       __ZN12capabilities2ct31kKeySupportsNanoRegistryDevicesE, __ZN12capabilities2ct31kKeySupportsPCOForCambioTriggerE, 
                       __ZN12capabilities2ct31kKeySupportsVegaInEmergencyModeE, __ZN12capabilities2ct31kKeySupportsVinylFirmwareUpdateE, 
                       __ZN12capabilities2ct31supportsAudioLoggingUserConsentEv, 
                       __ZN12capabilities2ct31supportsCapabilityTDSCDMADeviceEv, 
                       __ZN12capabilities2ct31supportsCellularPlanInfoInCloudEv, 
                       __ZN12capabilities2ct31supportsDataSystemDeterminationEv, 
                       __ZN12capabilities2ct31supportsLocalCellularPlanSignupEv, 
                       __ZN12capabilities2ct31supportsPhoneNumberRegistrationEv, 
                       __ZN12capabilities2ct31supportsVoicemailIndicationInCSEv, 
                       __ZN12capabilities2ct31tempUpdateAudioCatWhenSubSwitchEv, 
                       __ZN12capabilities2ct32getCardProvisioningStatusVersionEv, 
                       __ZN12capabilities2ct32kKeyFirmwarePreflightVinylSlotIDE, 
                       __ZN12capabilities2ct32kKeyGetSignalStrengthPersonalityE, 
                       __ZN12capabilities2ct32kKeySupports2StepDataCallBringUpE, 
                       __ZN12capabilities2ct32kKeySupportsEmergencySoSOverCellE, 
                       __ZN12capabilities2ct32kKeySupportsEnhancedLQMDataStallE, 
                       __ZN12capabilities2ct32kKeySupportsNormalEmergencySetupE, 
                       __ZN12capabilities2ct32kKeySupportsPacketFilterCallTypeE, 
                       __ZN12capabilities2ct32kKeySupportsRegisteredIDSServiceE, 
                       __ZN12capabilities2ct32shouldSetCellularTextModemForRTTEv, 
                       __ZN12capabilities2ct32supportsAudioPolicyForTopAntennaEv, 
                       __ZN12capabilities2ct32supportsBasebandPLMNPriorityListEv, 
                       __ZN12capabilities2ct32supportsEnhancedLQMLinkPowerCostEv, 
                       __ZN12capabilities2ct32supportsIPCInterfaceConfigStage2Ev, 
                       __ZN12capabilities2ct33hasSIMDetectionFullAppRequirementEv, 
                       __ZN12capabilities2ct33kKeyGetProvisioningProfileSupportE, 
                       __ZN12capabilities2ct33kKeyRequiresIMSStatusUpdateInCSFBE, 
                       __ZN12capabilities2ct33kKeyShouldRadioInitInAirplaneModeE, 
                       __ZN12capabilities2ct33kKeySignalStrengthDisplayMaxValueE, 
                       __ZN12capabilities2ct33kKeySupportsCapabilityeHRPDDeviceE, 
                       __ZN12capabilities2ct33kKeySupportsDataPlanNotificationsE, 
                       __ZN12capabilities2ct33kKeySupportsMultiphaseBundleSetupE, 
                       __ZN12capabilities2ct33kKeySupportsRegulatoryRestrictionE, 
                       __ZN12capabilities2ct33kKeySupportsSIMDetectionInterruptE, 
                       __ZN12capabilities2ct33kKeySupportsSIMMomentaryPowerDownE, 
                       __ZN12capabilities2ct33kKeySupportsThroughputEngineeringE, 
                       __ZN12capabilities2ct33supportsBundleUpdateFromVinylInfoEv, 
                       __ZN12capabilities2ct34activationSIMInfoHardwareSlotBasedEv, 
                       __ZN12capabilities2ct34kKeySupportsEmergencyQMIExtensionsE, 
                       __ZN12capabilities2ct34kKeySupportsIncrementalNetworkScanE, 
                       __ZN12capabilities2ct34shouldUseIMSPreferenceStatesForCapEv, 
                       __ZN12capabilities2ct34supportedSIMAllianceProfileVersionEv, 
                       __ZN12capabilities2ct34supportsActivationPushRegistrationEv, 
                       __ZN12capabilities2ct34supportsDataSubscriptionControllerEv, 
                       __ZN12capabilities2ct34supportsLogDumpForFailedBundlePushEv, 
                       __ZN12capabilities2ct34supportsSystemSelectionDataRoamingEv, 
                       __ZN12capabilities2ct34vinylOperationRequiresBasebandBootEv, 
                       __ZN12capabilities2ct35defaultMobileEquipmentInfoCSNSlotIDEv, 
                       __ZN12capabilities2ct35kKeyCallManagerSearchRoundsMaxValueE, 
                       __ZN12capabilities2ct35kKeyIntegratedPDPStatisticsIntervalE, 
                       __ZN12capabilities2ct35kKeySupportsAudioLoggingUserConsentE, 
                       __ZN12capabilities2ct35kKeySupportsCapabilityTDSCDMADeviceE, 
                       __ZN12capabilities2ct35kKeySupportsCellularPlanInfoInCloudE, 
                       __ZN12capabilities2ct35kKeySupportsDataSystemDeterminationE, 
                       __ZN12capabilities2ct35kKeySupportsLocalCellularPlanSignupE, 
                       __ZN12capabilities2ct35kKeySupportsPhoneNumberRegistrationE, 
                       __ZN12capabilities2ct35kKeySupportsVoicemailIndicationInCSE, 
                       __ZN12capabilities2ct35kKeyTempUpdateAudioCatWhenSubSwitchE, 
                       __ZN12capabilities2ct35supportsAudioPolicyForBottomAntennaEv, 
                       __ZN12capabilities2ct35supportsOTABundleUpdateDemoModeOnlyEv, 
                       __ZN12capabilities2ct35supportsSIMTransferWithSecureIntentEv, 
                       __ZN12capabilities2ct35useLegacyPhoneNumberSelectionMethodEv, 
                       __ZN12capabilities2ct36kKeyGetCardProvisioningStatusVersionE, 
                       __ZN12capabilities2ct36kKeyShouldSetCellularTextModemForRTTE, 
                       __ZN12capabilities2ct36kKeySupportsAudioPolicyForTopAntennaE, 
                       __ZN12capabilities2ct36kKeySupportsBasebandPLMNPriorityListE, 
                       __ZN12capabilities2ct36kKeySupportsEnhancedLQMLinkPowerCostE, 
                       __ZN12capabilities2ct36kKeySupportsIPCInterfaceConfigStage2E, 
                       __ZN12capabilities2ct36supportsEnhanced5GCellularHarvestingEv, 
                       __ZN12capabilities2ct37compatibleHardwareConfigurationStringEv, 
                       __ZN12capabilities2ct37kKeyHasSIMDetectionFullAppRequirementE, 
                       __ZN12capabilities2ct37kKeySupportsBundleUpdateFromVinylInfoE, 
                       __ZN12capabilities2ct37shouldUseLastPDPsForHighPriorityMediaEv, 
                       __ZN12capabilities2ct37supportsBBTimePrecisionInMillisecondsEv, 
                       __ZN12capabilities2ct37supportsFallbackToBrickAfterEmergencyEv, 
                       __ZN12capabilities2ct37supportsOnlineModeDueToUserPowerCycleEv, 
                       __ZN12capabilities2ct37supportsSIMProvisioningAsSignupSourceEv, 
                       __ZN12capabilities2ct37supportsWakingEmergencyCellIndicationEv, 
                       __ZN12capabilities2ct38bootstrapProvisioningSupportedOnSlotIDEv, 
                       __ZN12capabilities2ct38kKeyActivationSIMInfoHardwareSlotBasedE, 
                       __ZN12capabilities2ct38kKeyShouldUseIMSPreferenceStatesForCapE, 
                       __ZN12capabilities2ct38kKeySupportedSIMAllianceProfileVersionE, 
                       __ZN12capabilities2ct38kKeySupportsActivationPushRegistrationE, 
                       __ZN12capabilities2ct38kKeySupportsDataSubscriptionControllerE, 
                       __ZN12capabilities2ct38kKeySupportsLogDumpForFailedBundlePushE, 
                       __ZN12capabilities2ct38kKeySupportsSystemSelectionDataRoamingE, 
                       __ZN12capabilities2ct38kKeyVinylOperationRequiresBasebandBootE, 
                       __ZN12capabilities2ct38requiresSeparateOperatingModeForStewieEv, 
                       __ZN12capabilities2ct38supportsDynamicRRCReleaseVersionUpdateEv, 
                       __ZN12capabilities2ct39kKeyDefaultMobileEquipmentInfoCSNSlotIDE, 
                       __ZN12capabilities2ct39kKeySupportsAudioPolicyForBottomAntennaE, 
                       __ZN12capabilities2ct39kKeySupportsOTABundleUpdateDemoModeOnlyE, 
                       __ZN12capabilities2ct39kKeySupportsSIMTransferWithSecureIntentE, 
                       __ZN12capabilities2ct39kKeyUseLegacyPhoneNumberSelectionMethodE, 
                       __ZN12capabilities2ct39supportsSignalStrengthOnIMSVoiceNetworkEv, 
                       __ZN12capabilities2ct40allowChinaWSKUWatchesToProvisionROWPlansEv, 
                       __ZN12capabilities2ct40cellularPlanDeleteSupportedOnVinylSlotIDEv, 
                       __ZN12capabilities2ct40kKeySupportsEnhanced5GCellularHarvestingE, 
                       __ZN12capabilities2ct40nonPrimaryDLServingCellBandwidthMaxValueEv, 
                       __ZN12capabilities2ct40supportsCompleteCleanupOnFilePushFailureEv, 
                       __ZN12capabilities2ct40supportsForceUserConfirmationForSTKCallsEv, 
                       __ZN12capabilities2ct40supportsNVRAMUpdateWithoutBasebandRebootEv, 
                       __ZN12capabilities2ct41kKeyCompatibleHardwareConfigurationStringE, 
                       __ZN12capabilities2ct41kKeyShouldUseLastPDPsForHighPriorityMediaE, 
                       __ZN12capabilities2ct41kKeySupportsBBTimePrecisionInMillisecondsE, 
                       __ZN12capabilities2ct41kKeySupportsFallbackToBrickAfterEmergencyE, 
                       __ZN12capabilities2ct41kKeySupportsOnlineModeDueToUserPowerCycleE, 
                       __ZN12capabilities2ct41kKeySupportsSIMProvisioningAsSignupSourceE, 
                       __ZN12capabilities2ct41kKeySupportsWakingEmergencyCellIndicationE, 
                       __ZN12capabilities2ct41supportsReportingTetheringStateToBasebandEv, 
                       __ZN12capabilities2ct42kKeyBootstrapProvisioningSupportedOnSlotIDE, 
                       __ZN12capabilities2ct42kKeyRequiresSeparateOperatingModeForStewieE, 
                       __ZN12capabilities2ct42kKeySupportsDynamicRRCReleaseVersionUpdateE, 
                       __ZN12capabilities2ct42supportsDualSIMSingleStackWithCrossMappingEv, 
                       __ZN12capabilities2ct42supportsSIMProvisioningAsSignupDestinationEv, 
                       __ZN12capabilities2ct43disallowROWWSKUWatchesToProvisionChinaPlansEv, 
                       __ZN12capabilities2ct43kKeySupportsSignalStrengthOnIMSVoiceNetworkE, 
                       __ZN12capabilities2ct44kKeyAllowChinaWSKUWatchesToProvisionROWPlansE, 
                       __ZN12capabilities2ct44kKeyCellularPlanDeleteSupportedOnVinylSlotIDE, 
                       __ZN12capabilities2ct44kKeyNonPrimaryDLServingCellBandwidthMaxValueE, 
                       __ZN12capabilities2ct44kKeySupportsCompleteCleanupOnFilePushFailureE, 
                       __ZN12capabilities2ct44kKeySupportsForceUserConfirmationForSTKCallsE, 
                       __ZN12capabilities2ct44kKeySupportsNVRAMUpdateWithoutBasebandRebootE, 
                       __ZN12capabilities2ct44supportsBasebandAddressFormationNotificationEv, 
                       __ZN12capabilities2ct44supportsBasebandVoiceLinkQualityNotificationEv, 
                       __ZN12capabilities2ct45kKeySupportsReportingTetheringStateToBasebandE, 
                       __ZN12capabilities2ct45supportsSimultaneousNRStandaloneInDualSIMModeEv, 
                       __ZN12capabilities2ct46kKeySupportsDualSIMSingleStackWithCrossMappingE, 
                       __ZN12capabilities2ct46kKeySupportsSIMProvisioningAsSignupDestinationE, 
                       __ZN12capabilities2ct47kKeyDisallowROWWSKUWatchesToProvisionChinaPlansE, 
                       __ZN12capabilities2ct47supportsSystemSelectionInternationalCDMARoamingEv, 
                       __ZN12capabilities2ct48kKeySupportsBasebandAddressFormationNotificationE, 
                       __ZN12capabilities2ct48kKeySupportsBasebandVoiceLinkQualityNotificationE, 
                       __ZN12capabilities2ct49kKeySupportsSimultaneousNRStandaloneInDualSIMModeE, 
                       __ZN12capabilities2ct49supportsPhysicalSIMToESIMTransferFromLegacyDeviceEv, 
                       __ZN12capabilities2ct51kKeySupportsSystemSelectionInternationalCDMARoamingE, 
                       __ZN12capabilities2ct53kKeySupportsPhysicalSIMToESIMTransferFromLegacyDeviceE, 
                       __ZN12capabilities2ct55shouldWaitForDeviceRegistrationWhenPlacingEmergencyCallEv, 
                       __ZN12capabilities2ct59kKeyShouldWaitForDeviceRegistrationWhenPlacingEmergencyCallE, 
                       __ZN12capabilities2ct8SARValueEv, __ZN12capabilities2ct8asStringENS0_12APACSVersionE, 
                       __ZN12capabilities2ct8asStringENS0_13DeviceEvoTypeE, __ZN12capabilities2ct8asStringENS0_15RadioModuleTypeE, 
                       __ZN12capabilities2ct8asStringENS0_15SupportedLPASVNE, __ZN12capabilities2ct8asStringENS0_19CDMASettingsSupportE, 
                       __ZN12capabilities2ct8asStringENS0_19SupportedMTSMSTypesE, 
                       __ZN12capabilities2ct8asStringENS0_20AWDBasebandComponentE, 
                       __ZN12capabilities2ct8asStringENS0_20BasebandBootStrategyE, 
                       __ZN12capabilities2ct8asStringENS0_20CLTMInterfaceSupportE, 
                       __ZN12capabilities2ct8asStringENS0_20CarrierBundleBaseDirE, 
                       __ZN12capabilities2ct8asStringENS0_20SupportedMessageModeE, 
                       __ZN12capabilities2ct8asStringENS0_23RUIMDeprecationStrategyE, 
                       __ZN12capabilities2ct8asStringENS0_24AntennaSwitchCommandTypeE, 
                       __ZN12capabilities2ct8asStringENS0_25SignalStrengthPersonalityE, 
                       __ZN12capabilities2ct8asStringENS0_26ProvisioningProfileSupportE, 
                       __ZN12capabilities2ct8asStringENS0_29CardProvisioningStatusVersionE, 
                       __ZN12capabilities2ct8asStringENS0_34SupportedSIMAllianceProfileVersionE, 
                       __ZN12capabilities3abs10BBUSBDelayEv, __ZN12capabilities3abs10shouldBootEv, 
                       __ZN12capabilities3abs11kKeyUsesCDCE, __ZN12capabilities3abs11supportsETBEv, 
                       __ZN12capabilities3abs11supportsKISEv, __ZN12capabilities3abs12TUDebugFlagsEv, 
                       __ZN12capabilities3abs12supportsCoexEv, __ZN12capabilities3abs12supportsNMEAEv, 
                       __ZN12capabilities3abs13ABMLogEnabledEv, __ZN12capabilities3abs13ABMLogHistoryEv, 
                       __ZN12capabilities3abs14getCPMSVariantEv, __ZN12capabilities3abs14kKeyBBUSBDelayE, 
                       __ZN12capabilities3abs14kKeyShouldBootE, __ZN12capabilities3abs14logScratchPathEv, 
                       __ZN12capabilities3abs15kKeySupportsETBE, __ZN12capabilities3abs15kKeySupportsKISE, 
                       __ZN12capabilities3abs15logSnapshotPathEv, __ZN12capabilities3abs15shouldSetRegionEv, 
                       __ZN12capabilities3abs15supportsDesenseEv, __ZN12capabilities3abs15supportsMagSafeEv, 
                       __ZN12capabilities3abs16kKeySupportsCoexE, __ZN12capabilities3abs16kKeySupportsNMEAE, 
                       __ZN12capabilities3abs16kKeyTUDebugFlagsE, __ZN12capabilities3abs16radarComponentIDEv, 
                       __ZN12capabilities3abs16shouldLogSIMSlotEv, __ZN12capabilities3abs16supportsBBUSBMuxEv, 
                       __ZN12capabilities3abs17CPMSDebounceTimerEv, __ZN12capabilities3abs17LLDataInterfaceIDEv, 
                       __ZN12capabilities3abs17kKeyABMLogEnabledE, __ZN12capabilities3abs17kKeyABMLogHistoryE, 
                       __ZN12capabilities3abs17reducedFeatureSetEv, __ZN12capabilities3abs17shouldBlockResetsEv, 
                       __ZN12capabilities3abs17supportsCoexEur5GEv, __ZN12capabilities3abs17supportsETSBypassEv, 
                       __ZN12capabilities3abs18kKeyGetCPMSVariantE, __ZN12capabilities3abs18kKeyLogScratchPathE, 
                       __ZN12capabilities3abs18radarComponentNameEv, __ZN12capabilities3abs18shouldIgnoreResetsEv, 
                       __ZN12capabilities3abs18supportsRFSelfTestEv, __ZN12capabilities3abs19kKeyLogSnapshotPathE, 
                       __ZN12capabilities3abs19kKeyShouldSetRegionE, __ZN12capabilities3abs19kKeySupportsDesenseE, 
                       __ZN12capabilities3abs19kKeySupportsMagSafeE, __ZN12capabilities3abs19supportsETSProtocolEv, 
                       __ZN12capabilities3abs19supportsRadioHealthEv, __ZN12capabilities3abs20dataPowerSaveEnabledEv, 
                       __ZN12capabilities3abs20kKeyRadarComponentIDE, __ZN12capabilities3abs20kKeyShouldLogSIMSlotE, 
                       __ZN12capabilities3abs20kKeySupportsBBUSBMuxE, __ZN12capabilities3abs20supportedSARFeaturesEv, 
                       __ZN12capabilities3abs20supportsCellularCertEv, __ZN12capabilities3abs20supportsRFFEScanDataEv, 
                       __ZN12capabilities3abs21QMIPacketMaxSizeBytesEv, __ZN12capabilities3abs21kKeyCPMSDebounceTimerE, 
                       __ZN12capabilities3abs21kKeyLLDataInterfaceIDE, __ZN12capabilities3abs21kKeyReducedFeatureSetE, 
                       __ZN12capabilities3abs21kKeyShouldBlockResetsE, __ZN12capabilities3abs21kKeySupportsCoexEur5GE, 
                       __ZN12capabilities3abs21kKeySupportsETSBypassE, __ZN12capabilities3abs21radarComponentVersionEv, 
                       __ZN12capabilities3abs21supportsNetworkPolicyEv, __ZN12capabilities3abs21thermalSensorMaxCountEv, 
                       __ZN12capabilities3abs22dataFlowControlEnabledEv, __ZN12capabilities3abs22defaultDataInterfaceIDEv, 
                       __ZN12capabilities3abs22fileSystemFlushTimeoutEv, __ZN12capabilities3abs22kKeyRadarComponentNameE, 
                       __ZN12capabilities3abs22kKeyShouldIgnoreResetsE, __ZN12capabilities3abs22kKeySupportsRFSelfTestE, 
                       __ZN12capabilities3abs22shouldAddRFPSSpecifierEv, __ZN12capabilities3abs22supportsChargerDesenseEv, 
                       __ZN12capabilities3abs22supportsResetSPMIEventEv, __ZN12capabilities3abs22wakeReasonDebugEnabledEv, 
                       __ZN12capabilities3abs23RFTestSettingsPListNameEv, __ZN12capabilities3abs23dataAggregationProtocolEv, 
                       __ZN12capabilities3abs23fileSystemFlushIntervalEv, __ZN12capabilities3abs23kKeySupportsETSProtocolE, 
                       __ZN12capabilities3abs23kKeySupportsRadioHealthE, __ZN12capabilities3abs23supportsAccessoryModuleEv, 
                       __ZN12capabilities3abs23supportsCMHandDetectionEv, __ZN12capabilities3abs23supportsCellularLoggingEv, 
                       __ZN12capabilities3abs23supportsFieldTestConfigEv, __ZN12capabilities3abs24SMCThermalReportIntervalEv, 
                       __ZN12capabilities3abs24defaultSystemLogsHistoryEv, __ZN12capabilities3abs24kKeyDataPowerSaveEnabledE, 
                       __ZN12capabilities3abs24kKeySupportedSARFeaturesE, __ZN12capabilities3abs24kKeySupportsCellularCertE, 
                       __ZN12capabilities3abs24kKeySupportsRFFEScanDataE, __ZN12capabilities3abs24loggingSettingsPListNameEv, 
                       __ZN12capabilities3abs24profileBasebandHistoryMBEv, __ZN12capabilities3abs24supportsCalibrationQueryEv, 
                       __ZN12capabilities3abs24supportsCoexGPSReportingEv, __ZN12capabilities3abs24supportsProtocolNVConfigEv, 
                       __ZN12capabilities3abs24supportsSMCThermalReportEv, __ZN12capabilities3abs25kKeyQMIPacketMaxSizeBytesE, 
                       __ZN12capabilities3abs25kKeyRadarComponentVersionE, __ZN12capabilities3abs25kKeySupportsNetworkPolicyE, 
                       __ZN12capabilities3abs25kKeyThermalSensorMaxCountE, __ZN12capabilities3abs25shouldForceSyncFileSystemEv, 
                       __ZN12capabilities3abs26engageTimeoutScalingFactorEv, __ZN12capabilities3abs26kKeyDataFlowControlEnabledE, 
                       __ZN12capabilities3abs26kKeyDefaultDataInterfaceIDE, __ZN12capabilities3abs26kKeyFileSystemFlushTimeoutE, 
                       __ZN12capabilities3abs26kKeyShouldAddRFPSSpecifierE, __ZN12capabilities3abs26kKeySupportsChargerDesenseE, 
                       __ZN12capabilities3abs26kKeySupportsResetSPMIEventE, __ZN12capabilities3abs26kKeyWakeReasonDebugEnabledE, 
                       __ZN12capabilities3abs26shouldPanicOnBasebandResetEv, __ZN12capabilities3abs26supportsCPMSConnectedStateEv, 
                       __ZN12capabilities3abs26supportsCPMSGetPowerFromBBEv, __ZN12capabilities3abs26supportsEFSEraseOnBootLoopEv, 
                       __ZN12capabilities3abs27dataAggregationMaxSizeBytesEv, __ZN12capabilities3abs27kKeyDataAggregationProtocolE, 
                       __ZN12capabilities3abs27kKeyFileSystemFlushIntervalE, __ZN12capabilities3abs27kKeyRFTestSettingsPListNameE, 
                       __ZN12capabilities3abs27kKeySupportsAccessoryModuleE, __ZN12capabilities3abs27kKeySupportsCMHandDetectionE, 
                       __ZN12capabilities3abs27kKeySupportsCellularLoggingE, __ZN12capabilities3abs27kKeySupportsFieldTestConfigE, 
                       __ZN12capabilities3abs27supportsTraceBackgroundModeEv, __ZN12capabilities3abs28kKeyDefaultSystemLogsHistoryE, 
                       __ZN12capabilities3abs28kKeyLoggingSettingsPListNameE, __ZN12capabilities3abs28kKeyProfileBasebandHistoryMBE, 
                       __ZN12capabilities3abs28kKeySMCThermalReportIntervalE, __ZN12capabilities3abs28kKeySupportsCalibrationQueryE, 
                       __ZN12capabilities3abs28kKeySupportsCoexGPSReportingE, __ZN12capabilities3abs28kKeySupportsProtocolNVConfigE, 
                       __ZN12capabilities3abs28kKeySupportsSMCThermalReportE, __ZN12capabilities3abs28supportsDataTransportServiceEv, 
                       __ZN12capabilities3abs29LLDataAggregationMaxSizeBytesEv, __ZN12capabilities3abs29kKeyShouldForceSyncFileSystemE, 
                       __ZN12capabilities3abs29supportsBatteryInfoMonitoringEv, __ZN12capabilities3abs29supportsDisplayCoverAccessoryEv, 
                       __ZN12capabilities3abs30ARIMessageTimeoutScalingFactorEv, 
                       __ZN12capabilities3abs30kKeyEngageTimeoutScalingFactorE, __ZN12capabilities3abs30kKeyShouldPanicOnBasebandResetE, 
                       __ZN12capabilities3abs30kKeySupportsCPMSConnectedStateE, __ZN12capabilities3abs30kKeySupportsCPMSGetPowerFromBBE, 
                       __ZN12capabilities3abs30kKeySupportsEFSEraseOnBootLoopE, __ZN12capabilities3abs31dataAggregationDatagramMaxCountEv, 
                       __ZN12capabilities3abs31defaultBasebandTransportTimeoutEv, 
                       __ZN12capabilities3abs31kKeyDataAggregationMaxSizeBytesE, 
                       __ZN12capabilities3abs31kKeySupportsTraceBackgroundModeE, 
                       __ZN12capabilities3abs31serviceInitTimeoutScalingFactorEv, 
                       __ZN12capabilities3abs31supportsSmartConnectorAccessoryEv, 
                       __ZN12capabilities3abs32kKeySupportsDataTransportServiceE, 
                       __ZN12capabilities3abs32serviceSleepTimeoutScalingFactorEv, 
                       __ZN12capabilities3abs32serviceStartTimeoutScalingFactorEv, 
                       __ZN12capabilities3abs33LLDataAggregationDatagramMaxCountEv, 
                       __ZN12capabilities3abs33kKeyLLDataAggregationMaxSizeBytesE, 
                       __ZN12capabilities3abs33kKeySupportsBatteryInfoMonitoringE, 
                       __ZN12capabilities3abs33kKeySupportsDisplayCoverAccessoryE, 
                       __ZN12capabilities3abs34kKeyARIMessageTimeoutScalingFactorE, 
                       __ZN12capabilities3abs34resetAssertionTimeoutScalingFactorEv, 
                       __ZN12capabilities3abs34traceTransportTimeoutScalingFactorEv, 
                       __ZN12capabilities3abs35bootupAssertionTimeoutScalingFactorEv, 
                       __ZN12capabilities3abs35kKeyDataAggregationDatagramMaxCountE, 
                       __ZN12capabilities3abs35kKeyDefaultBasebandTransportTimeoutE, 
                       __ZN12capabilities3abs35kKeyServiceInitTimeoutScalingFactorE, 
                       __ZN12capabilities3abs35kKeySupportsSmartConnectorAccessoryE, 
                       __ZN12capabilities3abs35serviceShutdownTimeoutScalingFactorEv, 
                       __ZN12capabilities3abs36kKeyServiceSleepTimeoutScalingFactorE, 
                       __ZN12capabilities3abs36kKeyServiceStartTimeoutScalingFactorE, 
                       __ZN12capabilities3abs37kKeyLLDataAggregationDatagramMaxCountE, 
                       __ZN12capabilities3abs37shutdownAssertionTimeoutScalingFactorEv, 
                       __ZN12capabilities3abs38kKeyResetAssertionTimeoutScalingFactorE, 
                       __ZN12capabilities3abs38kKeyTraceTransportTimeoutScalingFactorE, 
                       __ZN12capabilities3abs39kKeyBootupAssertionTimeoutScalingFactorE, 
                       __ZN12capabilities3abs39kKeyServiceShutdownTimeoutScalingFactorE, 
                       __ZN12capabilities3abs39shouldAddPeriodicMeasurementPSSpecifierEv, 
                       __ZN12capabilities3abs39shouldTriggerCoreDumpOnSoftResetTimeoutEv, 
                       __ZN12capabilities3abs39shouldTriggerStackshotOnShutdownTimeoutEv, 
                       __ZN12capabilities3abs39shouldUseMinBasebandTransportIOReadSizeEv, 
                       __ZN12capabilities3abs40nonPrimaryDLServingCellBandwidthMaxValueEv, 
                       __ZN12capabilities3abs40shouldUseMinBasebandTransportIOReadCountEv, 
                       __ZN12capabilities3abs41kKeyShutdownAssertionTimeoutScalingFactorE, 
                       __ZN12capabilities3abs43kKeyShouldAddPeriodicMeasurementPSSpecifierE, 
                       __ZN12capabilities3abs43kKeyShouldTriggerCoreDumpOnSoftResetTimeoutE, 
                       __ZN12capabilities3abs43kKeyShouldTriggerStackshotOnShutdownTimeoutE, 
                       __ZN12capabilities3abs43kKeyShouldUseMinBasebandTransportIOReadSizeE, 
                       __ZN12capabilities3abs44kKeyNonPrimaryDLServingCellBandwidthMaxValueE, 
                       __ZN12capabilities3abs44kKeyShouldUseMinBasebandTransportIOReadCountE, 
                       __ZN12capabilities3abs7usesCDCEv, __ZN12capabilities3absaNERNS0_10SARFeatureES1_, 
                       __ZN12capabilities3absanENS0_10SARFeatureES1_, __ZN12capabilities3abscoENS0_10SARFeatureE, 
                       __ZN12capabilities3abseOERNS0_10SARFeatureES1_, __ZN12capabilities3abseoENS0_10SARFeatureES1_, 
                       __ZN12capabilities3absoRERNS0_10SARFeatureES1_, __ZN12capabilities3absorENS0_10SARFeatureES1_, 
                       __ZN12capabilities3etl18supportsBBCrashExtEv, __ZN12capabilities3etl19supportsBBAppsCrashEv, 
                       __ZN12capabilities3etl19supportsM20PlusIMEIEv, __ZN12capabilities3etl20getMavSHAHashLenTypeEv, 
                       __ZN12capabilities3etl20shouldUseQueryGUIDV3Ev, __ZN12capabilities3etl20supportsDoGetSIMTypeEv, 
                       __ZN12capabilities3etl21shouldDoIPALoopbackV2Ev, __ZN12capabilities3etl21supportsM20PlusFusingEv, 
                       __ZN12capabilities3etl22kKeySupportsBBCrashExtE, __ZN12capabilities3etl22supportsDoGetRFCStatusEv, 
                       __ZN12capabilities3etl23kKeySupportsBBAppsCrashE, __ZN12capabilities3etl23kKeySupportsM20PlusIMEIE, 
                       __ZN12capabilities3etl24kKeyGetMavSHAHashLenTypeE, __ZN12capabilities3etl24kKeyShouldUseQueryGUIDV3E, 
                       __ZN12capabilities3etl24kKeySupportsDoGetSIMTypeE, __ZN12capabilities3etl25kKeyShouldDoIPALoopbackV2E, 
                       __ZN12capabilities3etl25kKeySupportsM20PlusFusingE, __ZN12capabilities3etl26kKeySupportsDoGetRFCStatusE, 
                       __ZN12capabilities3etl26supportsMaverickGetICCIDV2Ev, __ZN12capabilities3etl27maverickTxPowerUsesRFSubsysEv, 
                       __ZN12capabilities3etl30kKeySupportsMaverickGetICCIDV2E, __ZN12capabilities3etl30shouldDoLegacyCalibrationCheckEv, 
                       __ZN12capabilities3etl31kKeyMaverickTxPowerUsesRFSubsysE, 
                       __ZN12capabilities3etl31shouldDoMHIPeriodicRemoteWakeV2Ev, 
                       __ZN12capabilities3etl31shouldDoMaverickIsSimPresentExtEv, 
                       __ZN12capabilities3etl31supportsMaverickEraseEFSCommandEv, 
                       __ZN12capabilities3etl32getNVRAMExtItemIDHSICEnabledTypeEv, 
                       __ZN12capabilities3etl34kKeyShouldDoLegacyCalibrationCheckE, 
                       __ZN12capabilities3etl35getNVRAMExtItemIDDIAGoverHSCoreTypeEv, 
                       __ZN12capabilities3etl35kKeyShouldDoMHIPeriodicRemoteWakeV2E, 
                       __ZN12capabilities3etl35kKeyShouldDoMaverickIsSimPresentExtE, 
                       __ZN12capabilities3etl35kKeySupportsMaverickEraseEFSCommandE, 
                       __ZN12capabilities3etl36getNVRAMExtItemIDHDRAcqDivEnableTypeEv, 
                       __ZN12capabilities3etl36kKeyGetNVRAMExtItemIDHSICEnabledTypeE, 
                       __ZN12capabilities3etl37getNVRAMExtItemIDHDRAcqDivThresh0TypeEv, 
                       __ZN12capabilities3etl37getNVRAMExtItemIDHDRAcqDivThresh1TypeEv, 
                       __ZN12capabilities3etl38getMaverickIPALoopbackV2ParametersTypeEv, 
                       __ZN12capabilities3etl38getNVRAMExtItemIDLTEBandPreferenceTypeEv, 
                       __ZN12capabilities3etl39kKeyGetNVRAMExtItemIDDIAGoverHSCoreTypeE, 
                       __ZN12capabilities3etl40kKeyGetNVRAMExtItemIDHDRAcqDivEnableTypeE, 
                       __ZN12capabilities3etl41kKeyGetNVRAMExtItemIDHDRAcqDivThresh0TypeE, 
                       __ZN12capabilities3etl41kKeyGetNVRAMExtItemIDHDRAcqDivThresh1TypeE, 
                       __ZN12capabilities3etl42kKeyGetMaverickIPALoopbackV2ParametersTypeE, 
                       __ZN12capabilities3etl42kKeyGetNVRAMExtItemIDLTEBandPreferenceTypeE, 
                       __ZN12capabilities3etl53getNVRAMExtItemGNSSAuxWWANTxAntennaIMJammingPowerTypeEv, 
                       __ZN12capabilities3etl54getNVRAMExtItemGNSSMainWWANTxAntennaIMJammingPowerTypeEv, 
                       __ZN12capabilities3etl57getNVRAMExtItemGNSSWLANBTDeltaTxAntennaIMJammingPowerTypeEv, 
                       __ZN12capabilities3etl57kKeyGetNVRAMExtItemGNSSAuxWWANTxAntennaIMJammingPowerTypeE, 
                       __ZN12capabilities3etl58kKeyGetNVRAMExtItemGNSSMainWWANTxAntennaIMJammingPowerTypeE, 
                       __ZN12capabilities3etl61kKeyGetNVRAMExtItemGNSSWLANBTDeltaTxAntennaIMJammingPowerTypeE, 
                       __ZN12capabilities3etl8asStringENS0_17MavSHAHashLenTypeE, 
                       __ZN12capabilities3etl8asStringENS0_29NVRAMExtItemIDHSICEnabledTypeE, 
                       __ZN12capabilities3etl8asStringENS0_32NVRAMExtItemIDDIAGoverHSCoreTypeE, 
                       __ZN12capabilities3etl8asStringENS0_33NVRAMExtItemIDHDRAcqDivEnableTypeE, 
                       __ZN12capabilities3etl8asStringENS0_34NVRAMExtItemIDHDRAcqDivThresh0TypeE, 
                       __ZN12capabilities3etl8asStringENS0_34NVRAMExtItemIDHDRAcqDivThresh1TypeE, 
                       __ZN12capabilities3etl8asStringENS0_35MaverickIPALoopbackV2ParametersTypeE, 
                       __ZN12capabilities3etl8asStringENS0_35NVRAMExtItemIDLTEBandPreferenceTypeE, 
                       __ZN12capabilities3etl8asStringENS0_50NVRAMExtItemGNSSAuxWWANTxAntennaIMJammingPowerTypeE, 
                       __ZN12capabilities3etl8asStringENS0_51NVRAMExtItemGNSSMainWWANTxAntennaIMJammingPowerTypeE, 
                       __ZN12capabilities3etl8asStringENS0_54NVRAMExtItemGNSSWLANBTDeltaTxAntennaIMJammingPowerTypeE, 
                       __ZN12capabilities3ipc11supportsPCIEv, __ZN12capabilities3ipc12supportsHSICEv, 
                       __ZN12capabilities3ipc12supportsUARTEv, __ZN12capabilities3ipc12typeInternalEv, 
                       __ZN12capabilities3ipc14supportsRouterEv, __ZN12capabilities3ipc15defaultLogLevelEv, 
                       __ZN12capabilities3ipc15kKeySupportsPCIE, __ZN12capabilities3ipc16QMIInstanceCountEv, 
                       __ZN12capabilities3ipc16kKeySupportsHSICE, __ZN12capabilities3ipc16kKeySupportsUARTE, 
                       __ZN12capabilities3ipc16kKeyTypeInternalE, __ZN12capabilities3ipc18kKeySupportsRouterE, 
                       __ZN12capabilities3ipc18supportsCoalescingEv, __ZN12capabilities3ipc19kKeyDefaultLogLevelE, 
                       __ZN12capabilities3ipc19supportsUnifiedQMuxEv, __ZN12capabilities3ipc20defaultHistorySizeMBEv, 
                       __ZN12capabilities3ipc20kKeyQMIInstanceCountE, __ZN12capabilities3ipc21supportsUnifiedQMuxV2Ev, 
                       __ZN12capabilities3ipc22kKeySupportsCoalescingE, __ZN12capabilities3ipc23kKeySupportsUnifiedQMuxE, 
                       __ZN12capabilities3ipc24kKeyDefaultHistorySizeMBE, __ZN12capabilities3ipc25controlDataPrintSizeBytesEv, 
                       __ZN12capabilities3ipc25kKeySupportsUnifiedQMuxV2E, __ZN12capabilities3ipc25supportsIPMetadataTrailerEv, 
                       __ZN12capabilities3ipc29kKeyControlDataPrintSizeBytesE, __ZN12capabilities3ipc29kKeySupportsIPMetadataTrailerE, 
                       __ZN12capabilities3ipc32defaultMHIConfigPayloadSizeBytesEv, 
                       __ZN12capabilities3ipc34defaultPCIBinaryTraceHistorySizeMBEv, 
                       __ZN12capabilities3ipc36kKeyDefaultMHIConfigPayloadSizeBytesE, 
                       __ZN12capabilities3ipc38kKeyDefaultPCIBinaryTraceHistorySizeMBE, 
                       __ZN12capabilities3ipc8asStringENS0_16QMIInterfaceTypeE, __ZN12capabilities3ipc8asStringENS0_7IPCTypeE, 
                       __ZN12capabilities3ipcaNERNS0_7IPCTypeES1_, __ZN12capabilities3ipcanENS0_7IPCTypeES1_, 
                       __ZN12capabilities3ipccoENS0_7IPCTypeE, __ZN12capabilities3ipceOERNS0_7IPCTypeES1_, 
                       __ZN12capabilities3ipceoENS0_7IPCTypeES1_, __ZN12capabilities3ipcoRERNS0_7IPCTypeES1_, 
                       __ZN12capabilities3ipcorENS0_7IPCTypeES1_, __ZN12capabilities3pci16supportsPCIAudioEv, 
                       __ZN12capabilities3pci19controlChannelCountEv, __ZN12capabilities3pci20kKeySupportsPCIAudioE, 
                       __ZN12capabilities3pci23kKeyControlChannelCountE, __ZN12capabilities4diag11diagVersionEv, 
                       __ZN12capabilities4diag12supportsADPLEv, __ZN12capabilities4diag12supportsQDSSEv, 
                       __ZN12capabilities4diag14interfaceIsUSBENS0_10InterfacesE, 
                       __ZN12capabilities4diag15kKeyDiagVersionE, __ZN12capabilities4diag16kKeySupportsADPLE, 
                       __ZN12capabilities4diag16kKeySupportsQDSSE, __ZN12capabilities4diag16supportsQShrink4Ev, 
                       __ZN12capabilities4diag17supportsBufferingEv, __ZN12capabilities4diag18interfaceAfterBootEv, 
                       __ZN12capabilities4diag18preferredInterfaceEv, __ZN12capabilities4diag18supportsBSPFlagSetEv, 
                       __ZN12capabilities4diag18supportsDrainTimerEv, __ZN12capabilities4diag19supportedInterfacesEv, 
                       __ZN12capabilities4diag19supportsCompressionEv, __ZN12capabilities4diag20kKeySupportsQShrink4E, 
                       __ZN12capabilities4diag21kKeySupportsBufferingE, __ZN12capabilities4diag21preferredUSBInterfaceEv, 
                       __ZN12capabilities4diag21supportsMultipleMasksEv, __ZN12capabilities4diag22kKeyInterfaceAfterBootE, 
                       __ZN12capabilities4diag22kKeyPreferredInterfaceE, __ZN12capabilities4diag22kKeySupportsBSPFlagSetE, 
                       __ZN12capabilities4diag22kKeySupportsDrainTimerE, __ZN12capabilities4diag22supportedDuringAPSleepEv, 
                       __ZN12capabilities4diag23kKeySupportedInterfacesE, __ZN12capabilities4diag23kKeySupportsCompressionE, 
                       __ZN12capabilities4diag24interfaceToUSBLocationIDENS0_10InterfacesE, 
                       __ZN12capabilities4diag25kKeySupportsMultipleMasksE, __ZN12capabilities4diag26kKeySupportedDuringAPSleepE, 
                       __ZN12capabilities4diag8QMuxNameEv, __ZN12capabilities4diag8asStringENS0_10InterfacesE, 
                       __ZN12capabilities4diag8asStringENS0_14BufferingModesE, __ZN12capabilities4diagaNERNS0_10InterfacesES1_, 
                       __ZN12capabilities4diagaNERNS0_14BufferingModesES1_, __ZN12capabilities4diaganENS0_10InterfacesES1_, 
                       __ZN12capabilities4diaganENS0_14BufferingModesES1_, __ZN12capabilities4diagcoENS0_10InterfacesE, 
                       __ZN12capabilities4diagcoENS0_14BufferingModesE, __ZN12capabilities4diageOERNS0_10InterfacesES1_, 
                       __ZN12capabilities4diageOERNS0_14BufferingModesES1_, __ZN12capabilities4diageoENS0_10InterfacesES1_, 
                       __ZN12capabilities4diageoENS0_14BufferingModesES1_, __ZN12capabilities4diagoRERNS0_10InterfacesES1_, 
                       __ZN12capabilities4diagoRERNS0_14BufferingModesES1_, __ZN12capabilities4diagorENS0_10InterfacesES1_, 
                       __ZN12capabilities4diagorENS0_14BufferingModesES1_, __ZN12capabilities5debug32shouldTriggerStackshotOnSnapshotEv, 
                       __ZN12capabilities5debug36kKeyShouldTriggerStackshotOnSnapshotE, 
                       __ZN12capabilities5radio10kKeyChipIDE, __ZN12capabilities5radio11supportsLTEEv, 
                       __ZN12capabilities5radio12firmwarePathEv, __ZN12capabilities5radio12kKeyMaverickE, 
                       __ZN12capabilities5radio12radioUnknownEv, __ZN12capabilities5radio12supportsMESAEv, 
                       __ZN12capabilities5radio12supportsUMTSEv, __ZN12capabilities5radio13kKeyC2KDeviceE, 
                       __ZN12capabilities5radio13kKeyMav20PlusE, __ZN12capabilities5radio13kKeyMav21PlusE, 
                       __ZN12capabilities5radio13kKeyMavLegacyE, __ZN12capabilities5radio13kKeyRadioTypeE, 
                       __ZN12capabilities5radio13safeResetTimeEv, __ZN12capabilities5radio13supportsRel16Ev, 
                       __ZN12capabilities5radio14firmwarePrefixEv, __ZN12capabilities5radio14getStartupModeEv, 
                       __ZN12capabilities5radio15kKeySupportsLTEE, __ZN12capabilities5radio16kKeyFirmwarePathE, 
                       __ZN12capabilities5radio16kKeyRadioUnknownE, __ZN12capabilities5radio16kKeySupportsMESAE, 
                       __ZN12capabilities5radio16kKeySupportsUMTSE, __ZN12capabilities5radio16supportsSDIResetEv, 
                       __ZN12capabilities5radio17kKeySafeResetTimeE, __ZN12capabilities5radio17kKeySupportsRel16E, 
                       __ZN12capabilities5radio17supportsBBTraceV2Ev, __ZN12capabilities5radio17supportsFlashlessEv, 
                       __ZN12capabilities5radio18firmwarePathSuffixEv, __ZN12capabilities5radio18kKeyFirmwarePrefixE, 
                       __ZN12capabilities5radio18kKeyGetStartupModeE, __ZN12capabilities5radio19ARITransportTimeoutEv, 
                       __ZN12capabilities5radio19supportsDataServiceEv, __ZN12capabilities5radio20kKeySupportsSDIResetE, 
                       __ZN12capabilities5radio21ARITransportReadCountEv, __ZN12capabilities5radio21kKeySupportsBBTraceV2E, 
                       __ZN12capabilities5radio21kKeySupportsFlashlessE, __ZN12capabilities5radio22kKeyFirmwarePathSuffixE, 
                       __ZN12capabilities5radio22supportsDeviceMaterialEv, __ZN12capabilities5radio22supportsLowLatencyDataEv, 
                       __ZN12capabilities5radio22supportsMultiClientAWDEv, __ZN12capabilities5radio22supportsQMuxSendWindowEv, 
                       __ZN12capabilities5radio23kKeyARITransportTimeoutE, __ZN12capabilities5radio23kKeySupportsDataServiceE, 
                       __ZN12capabilities5radio23supportsGetWakeReasonV2Ev, __ZN12capabilities5radio24personalizedFirmwarePathEv, 
                       __ZN12capabilities5radio24supportsRemoteFilesystemEv, __ZN12capabilities5radio25ARITransportReadSizeBytesEv, 
                       __ZN12capabilities5radio25getPacketFilteringVersionEv, __ZN12capabilities5radio25kKeyARITransportReadCountE, 
                       __ZN12capabilities5radio26kKeySupportsDeviceMaterialE, __ZN12capabilities5radio26kKeySupportsLowLatencyDataE, 
                       __ZN12capabilities5radio26kKeySupportsMultiClientAWDE, __ZN12capabilities5radio26kKeySupportsQMuxSendWindowE, 
                       __ZN12capabilities5radio26supportsAccessoryDetectionEv, __ZN12capabilities5radio27kKeySupportsGetWakeReasonV2E, 
                       __ZN12capabilities5radio28QMuxPendingRequestLimitCountEv, 
                       __ZN12capabilities5radio28kKeySupportsRemoteFilesystemE, __ZN12capabilities5radio28supportsAutomaticRadarFilingEv, 
                       __ZN12capabilities5radio28supportsFactoryCalibrationV2Ev, 
                       __ZN12capabilities5radio28supportsLTECounterIndicationEv, 
                       __ZN12capabilities5radio29kKeyARITransportReadSizeBytesE, 
                       __ZN12capabilities5radio29kKeyGetPacketFilteringVersionE, 
                       __ZN12capabilities5radio30kKeySupportsAccessoryDetectionE, 
                       __ZN12capabilities5radio31shouldEnableEUICCDetectPullDownEv, 
                       __ZN12capabilities5radio31supportsBasebandStateControllerEv, 
                       __ZN12capabilities5radio32kKeyQMuxPendingRequestLimitCountE, 
                       __ZN12capabilities5radio32kKeySupportsAutomaticRadarFilingE, 
                       __ZN12capabilities5radio32kKeySupportsFactoryCalibrationV2E, 
                       __ZN12capabilities5radio32kKeySupportsLTECounterIndicationE, 
                       __ZN12capabilities5radio33supportsAccessoryDetectionForARTDEv, 
                       __ZN12capabilities5radio35kKeyShouldEnableEUICCDetectPullDownE, 
                       __ZN12capabilities5radio35kKeySupportsBasebandStateControllerE, 
                       __ZN12capabilities5radio35supportsAccessoryTypeDetectionForRFEv, 
                       __ZN12capabilities5radio37kKeySupportsAccessoryDetectionForARTDE, 
                       __ZN12capabilities5radio37supportsAccessoryTypeDetectionForARTDEv, 
                       __ZN12capabilities5radio39kKeySupportsAccessoryTypeDetectionForRFE, 
                       __ZN12capabilities5radio3iceEv, __ZN12capabilities5radio41kKeySupportsAccessoryTypeDetectionForARTDE, 
                       __ZN12capabilities5radio4typeEv, __ZN12capabilities5radio6chipIDEv, 
                       __ZN12capabilities5radio6vendorEv, __ZN12capabilities5radio7kKeyIceE, 
                       __ZN12capabilities5radio7productEv, __ZN12capabilities5radio8asStringENS0_11StartupModeE, 
                       __ZN12capabilities5radio8asStringENS0_15BootPersonalityE, 
                       __ZN12capabilities5radio8asStringENS0_22PacketFilteringVersionE, 
                       __ZN12capabilities5radio8maverickEv, __ZN12capabilities5radio9C2KDeviceEv, 
                       __ZN12capabilities5radio9mav20PlusEv, __ZN12capabilities5radio9mav21PlusEv, 
                       __ZN12capabilities5radio9mavLegacyEv, __ZN12capabilities5radio9radioTypeEv, 
                       __ZN12capabilities5trace16enabledByDefaultEv, __ZN12capabilities5trace18getCompressionModeEv, 
                       __ZN12capabilities5trace20defaultFileSizeBytesEv, __ZN12capabilities5trace20defaultHistorySizeMBEv, 
                       __ZN12capabilities5trace22kKeyGetCompressionModeE, __ZN12capabilities5trace22supportsCoreDumpStatusEv, 
                       __ZN12capabilities5trace22supportsKernelPCITraceEv, __ZN12capabilities5trace24kKeyDefaultFileSizeBytesE, 
                       __ZN12capabilities5trace24kKeyDefaultHistorySizeMBE, __ZN12capabilities5trace24supportsBasebandIPCTraceEv, 
                       __ZN12capabilities5trace25defaultMemoryFileMaxCountEv, __ZN12capabilities5trace25supportsDumpLogIndicationEv, 
                       __ZN12capabilities5trace25supportsHighTPutByDefaultEv, __ZN12capabilities5trace28supportsDataLoggingByDefaultEv, 
                       __ZN12capabilities5trace28supportsKernelPCIBinaryTraceEv, 
                       __ZN12capabilities5trace29kKeyDefaultMemoryFileMaxCountE, 
                       __ZN12capabilities5trace35supportsDuplicateSignatureDetectionEv, 
                       __ZN12capabilities5trace39kKeySupportsDuplicateSignatureDetectionE, 
                       __ZN12capabilities5trace7allowedEv, __ZN12capabilities5trace8asStringENS0_15CompressionModeE, 
                       __ZN12capabilities6fusing13defaultCertIDEv, __ZN12capabilities6fusing14commandTimeoutEv, 
                       __ZN12capabilities6fusing14getFusingStateENSt3__16vectorIhNS1_9allocatorIhEEEEj, 
                       __ZN12capabilities6fusing14modeSetTimeoutEv, __ZN12capabilities6fusing17getFusingStateStrEN3ctu29TelephonyUtilRadioFusingStateE, 
                       __ZN12capabilities6fusing17kKeyDefaultCertIDE, __ZN12capabilities6fusing18kKeyCommandTimeoutE, 
                       __ZN12capabilities6fusing18kKeyModeSetTimeoutE, __ZN12capabilities6fusing26inferFusingStateFromCertIDEj, 
                       __ZN12capabilities6fusing30supportsCertIDFromSerialNumberEv, 
                       __ZN12capabilities6fusing31supportsCertIDFromPublicKeyHashEv, 
                       __ZN12capabilities6fusing32inferFusingStateFromSerialNumberERKNSt3__112basic_stringIcNS1_11char_traitsIcEENS1_9allocatorIcEEEE, 
                       __ZN12capabilities6fusing32inferFusingStateFromSerialNumberEj, 
                       __ZN12capabilities6fusing34kKeySupportsCertIDFromSerialNumberE, 
                       __ZN12capabilities6fusing35kKeySupportsCertIDFromPublicKeyHashE, 
                       __ZN12capabilities6fusing8asStringENS0_5StateE, __ZN12capabilities6fusing8getStateENSt3__16vectorIhNS1_9allocatorIhEEEEj, 
                       __ZN12capabilities7txpower10LTEBandsV2Ev, __ZN12capabilities7txpower10techConfigEv, 
                       __ZN12capabilities7txpower11supportsPPMEv, __ZN12capabilities7txpower13timeoutConfigEv, 
                       __ZN12capabilities7txpower14kKeyLTEBandsV2E, __ZN12capabilities7txpower14kKeyTechConfigE, 
                       __ZN12capabilities7txpower14maxPowerConfigEPNS0_6ConfigE19TelephonyRegionCode, 
                       __ZN12capabilities7txpower14supportsConfigEv, __ZN12capabilities7txpower14supportsMotionEv, 
                       __ZN12capabilities7txpower15kKeySupportsPPME, __ZN12capabilities7txpower15proxPowerConfigEPNS0_6ConfigE19TelephonyRegionCode, 
                       __ZN12capabilities7txpower15supportedFaceIDEv, __ZN12capabilities7txpower16supportsKeyboardEv, 
                       __ZN12capabilities7txpower17settingsPlistNameEv, __ZN12capabilities7txpower17supportsRFCalCLTMEv, 
                       __ZN12capabilities7txpower18kKeySupportsConfigE, __ZN12capabilities7txpower18kKeySupportsMotionE, 
                       __ZN12capabilities7txpower19kKeySupportedFaceIDE, __ZN12capabilities7txpower19supportsFrontCameraEv, 
                       __ZN12capabilities7txpower20kKeySupportsKeyboardE, __ZN12capabilities7txpower20supportsAudioSpeakerEv, 
                       __ZN12capabilities7txpower20supportsMotionAlwaysEv, __ZN12capabilities7txpower20userSpaceCPMSVariantEv, 
                       __ZN12capabilities7txpower21kKeySettingsPlistNameE, __ZN12capabilities7txpower21kKeySupportsRFCalCLTME, 
                       __ZN12capabilities7txpower21supportedControlInputEv, __ZN12capabilities7txpower21supportsHandDetectionEv, 
                       __ZN12capabilities7txpower22supportsWristDetectionEv, __ZN12capabilities7txpower22unsupportedPowerConfigEPNS0_6ConfigE, 
                       __ZN12capabilities7txpower23kKeySupportsFrontCameraE, __ZN12capabilities7txpower23supportsAudioJackReportEv, 
                       __ZN12capabilities7txpower24kKeySupportsAudioSpeakerE, __ZN12capabilities7txpower24kKeySupportsMotionAlwaysE, 
                       __ZN12capabilities7txpower24kKeyUserSpaceCPMSVariantE, __ZN12capabilities7txpower25kKeySupportedControlInputE, 
                       __ZN12capabilities7txpower25kKeySupportsHandDetectionE, __ZN12capabilities7txpower26kKeySupportsWristDetectionE, 
                       __ZN12capabilities7txpower27kKeySupportsAudioJackReportE, 
                       __ZN12capabilities7txpower27supportsPowerChargerDesenseEv, 
                       __ZN12capabilities7txpower28supportsPowerSourceDetectionEv, 
                       __ZN12capabilities7txpower29supportsVideoAntennaSwitchingEv, 
                       __ZN12capabilities7txpower30supportsAntennaFreeSpaceConfigEv, 
                       __ZN12capabilities7txpower31kKeySupportsPowerChargerDesenseE, 
                       __ZN12capabilities7txpower32kKeySupportsPowerSourceDetectionE, 
                       __ZN12capabilities7txpower33kKeySupportsVideoAntennaSwitchingE, 
                       __ZN12capabilities7txpower34kKeySupportsAntennaFreeSpaceConfigE, 
                       __ZN12capabilities7txpower34supportsDelayProximityTimeoutResetEv, 
                       __ZN12capabilities7txpower38kKeySupportsDelayProximityTimeoutResetE, 
                       __ZN12capabilities7txpower8asStringENS0_12ControlInputE, __ZN12capabilities7txpower8asStringENS0_13FaceIDVersionE, 
                       __ZN12capabilities7txpower8asStringERKNS0_13TimeoutConfigE, 
                       __ZN12capabilities7txpoweraNERNS0_12ControlInputES1_, __ZN12capabilities7txpoweranENS0_12ControlInputES1_, 
                       __ZN12capabilities7txpowercoENS0_12ControlInputE, __ZN12capabilities7txpowereOERNS0_12ControlInputES1_, 
                       __ZN12capabilities7txpowereoENS0_12ControlInputES1_, __ZN12capabilities7txpowerltERKNS0_13TimeoutConfigES3_, 
                       __ZN12capabilities7txpoweroRERNS0_12ControlInputES1_, __ZN12capabilities7txpowerorENS0_12ControlInputES1_, 
                       __ZN12capabilities7updater10flashBasedEv, __ZN12capabilities7updater10getAOPTypeEv, 
                       __ZN12capabilities7updater10getActTypeEv, __ZN12capabilities7updater10getCalTypeEv, 
                       __ZN12capabilities7updater10getHYPTypeEv, __ZN12capabilities7updater10getMBATypeEv, 
                       __ZN12capabilities7updater10getPacTypeEv, __ZN12capabilities7updater10getRPMTypeEv, 
                       __ZN12capabilities7updater10getSBLTypeEv, __ZN12capabilities7updater10getSECTypeEv, 
                       __ZN12capabilities7updater10getWDTTypeEv, __ZN12capabilities7updater10resetDelayEv, 
                       __ZN12capabilities7updater11CALFileNameEv, __ZN12capabilities7updater11PACFileNameEv, 
                       __ZN12capabilities7updater11getACDBTypeEv, __ZN12capabilities7updater11getAPDPTypeEv, 
                       __ZN12capabilities7updater11getAPPSTypeEv, __ZN12capabilities7updater11getDSP3TypeEv, 
                       __ZN12capabilities7updater11getEFS1TypeEv, __ZN12capabilities7updater11getEFS2TypeEv, 
                       __ZN12capabilities7updater11getEFS3TypeEv, __ZN12capabilities7updater11getProvTypeEv, 
                       __ZN12capabilities7updater11getUEFITypeEv, __ZN12capabilities7updater11kKeyHasMEIDE, 
                       __ZN12capabilities7updater11pingTimeoutEv, __ZN12capabilities7updater12PROVFileNameEv, 
                       __ZN12capabilities7updater12getBBCFGTypeEv, __ZN12capabilities7updater13getDEVCFGTypeEv, 
                       __ZN12capabilities7updater13getDigestTypeEv, __ZN12capabilities7updater13getFusingTypeEv, 
                       __ZN12capabilities7updater13getLoaderTypeEv, __ZN12capabilities7updater13getMDMDDRTypeEv, 
                       __ZN12capabilities7updater13getXblCfgTypeEv, __ZN12capabilities7updater13kKeyGetTZTypeE, 
                       __ZN12capabilities7updater13kKeyPingDelayE, __ZN12capabilities7updater14SPCUnlockDelayEv, 
                       __ZN12capabilities7updater14getOEMMiscTypeEv, __ZN12capabilities7updater14getQDSP6SWTypeEv, 
                       __ZN12capabilities7updater14getQTIMiscTypeEv, __ZN12capabilities7updater14kKeyFlashBasedE, 
                       __ZN12capabilities7updater14kKeyGetAOPTypeE, __ZN12capabilities7updater14kKeyGetActTypeE, 
                       __ZN12capabilities7updater14kKeyGetCalTypeE, __ZN12capabilities7updater14kKeyGetHYPTypeE, 
                       __ZN12capabilities7updater14kKeyGetMBATypeE, __ZN12capabilities7updater14kKeyGetPacTypeE, 
                       __ZN12capabilities7updater14kKeyGetRPMTypeE, __ZN12capabilities7updater14kKeyGetSBLTypeE, 
                       __ZN12capabilities7updater14kKeyGetSECTypeE, __ZN12capabilities7updater14kKeyGetWDTTypeE, 
                       __ZN12capabilities7updater14kKeyResetDelayE, __ZN12capabilities7updater14supportsEBLXorEv, 
                       __ZN12capabilities7updater15kKeyCALFileNameE, __ZN12capabilities7updater15kKeyGetACDBTypeE, 
                       __ZN12capabilities7updater15kKeyGetAPDPTypeE, __ZN12capabilities7updater15kKeyGetAPPSTypeE, 
                       __ZN12capabilities7updater15kKeyGetDSP3TypeE, __ZN12capabilities7updater15kKeyGetEFS1TypeE, 
                       __ZN12capabilities7updater15kKeyGetEFS2TypeE, __ZN12capabilities7updater15kKeyGetEFS3TypeE, 
                       __ZN12capabilities7updater15kKeyGetProvTypeE, __ZN12capabilities7updater15kKeyGetUEFITypeE, 
                       __ZN12capabilities7updater15kKeyPACFileNameE, __ZN12capabilities7updater15kKeyPingTimeoutE, 
                       __ZN12capabilities7updater15switchPingCountEv, __ZN12capabilities7updater16EFSFileSizeBytesEv, 
                       __ZN12capabilities7updater16ICENVMFSizeBytesENS0_11NVMFileTypeE, 
                       __ZN12capabilities7updater16NVRestoreTimeoutEv, __ZN12capabilities7updater16getTransportTypeEv, 
                       __ZN12capabilities7updater16kKeyGetBBCFGTypeE, __ZN12capabilities7updater16kKeyPROVFileNameE, 
                       __ZN12capabilities7updater16pingAttemptCountEv, __ZN12capabilities7updater16supportsBBFusingEv, 
                       __ZN12capabilities7updater16versionReadDelayEv, __ZN12capabilities7updater17ARICommandTimeoutEv, 
                       __ZN12capabilities7updater17EUICCAttemptCountEv, __ZN12capabilities7updater17getProgrammerTypeEv, 
                       __ZN12capabilities7updater17getXblSupportTypeEv, __ZN12capabilities7updater17kKeyGetDEVCFGTypeE, 
                       __ZN12capabilities7updater17kKeyGetDigestTypeE, __ZN12capabilities7updater17kKeyGetFusingTypeE, 
                       __ZN12capabilities7updater17kKeyGetLoaderTypeE, __ZN12capabilities7updater17kKeyGetMDMDDRTypeE, 
                       __ZN12capabilities7updater17kKeyGetXblCfgTypeE, __ZN12capabilities7updater17supportsPowerdownEv, 
                       __ZN12capabilities7updater17supportsUEFIImageEv, __ZN12capabilities7updater18bootupTimeMaxValueEv, 
                       __ZN12capabilities7updater18getFirmwareVersionEv, __ZN12capabilities7updater18getProvisionerTypeEv, 
                       __ZN12capabilities7updater18kKeyGetOEMMiscTypeE, __ZN12capabilities7updater18kKeyGetQDSP6SWTypeE, 
                       __ZN12capabilities7updater18kKeyGetQTIMiscTypeE, __ZN12capabilities7updater18kKeySPCUnlockDelayE, 
                       __ZN12capabilities7updater18kKeySupportsEBLXorE, __ZN12capabilities7updater18shouldAllowUnfusedEv, 
                       __ZN12capabilities7updater18supportsBbcfgImageEv, __ZN12capabilities7updater18supportsHashSha384Ev, 
                       __ZN12capabilities7updater19DDRDataMaxSizeBytesEv, __ZN12capabilities7updater19getUpdateSourceTypeEv, 
                       __ZN12capabilities7updater19kKeySwitchPingCountE, __ZN12capabilities7updater19requiresMRCTrainingEv, 
                       __ZN12capabilities7updater19supportsEUICCUpdateEv, __ZN12capabilities7updater19supportsXblCfgImageEv, 
                       __ZN12capabilities7updater20BBUFSPartitionSizeMBEv, __ZN12capabilities7updater20EUICCCertIDSizeBytesEh, 
                       __ZN12capabilities7updater20getCommunicationTypeEv, __ZN12capabilities7updater20getFusingProgramTypeEv, 
                       __ZN12capabilities7updater20kKeyEFSFileSizeBytesE, __ZN12capabilities7updater20kKeyGetTransportTypeE, 
                       __ZN12capabilities7updater20kKeyNVRestoreTimeoutE, __ZN12capabilities7updater20kKeyPingAttemptCountE, 
                       __ZN12capabilities7updater20kKeySupportsBBFusingE, __ZN12capabilities7updater20kKeyVersionReadDelayE, 
                       __ZN12capabilities7updater20loaderCommandTimeoutEv, __ZN12capabilities7updater20supportsProvisioningEv, 
                       __ZN12capabilities7updater21getInitializerVersionEv, __ZN12capabilities7updater21kKeyARICommandTimeoutE, 
                       __ZN12capabilities7updater21kKeyEUICCAttemptCountE, __ZN12capabilities7updater21kKeyGetProgrammerTypeE, 
                       __ZN12capabilities7updater21kKeyGetXblSupportTypeE, __ZN12capabilities7updater21kKeySupportsPowerdownE, 
                       __ZN12capabilities7updater21kKeySupportsUEFIImageE, __ZN12capabilities7updater21loaderConnectAttemptsEv, 
                       __ZN12capabilities7updater21supportsAudioOverPCIeEv, __ZN12capabilities7updater21supportsDDRDataSavingEv, 
                       __ZN12capabilities7updater21supportsMHIBootLoggerEv, __ZN12capabilities7updater22kKeyBootupTimeMaxValueE, 
                       __ZN12capabilities7updater22kKeyGetFirmwareVersionE, __ZN12capabilities7updater22kKeyGetProvisionerTypeE, 
                       __ZN12capabilities7updater22kKeySupportsBbcfgImageE, __ZN12capabilities7updater22kKeySupportsHashSha384E, 
                       __ZN12capabilities7updater22shouldBailOnEUICCErrorEv, __ZN12capabilities7updater22shouldStripFDRDataOnAPEv, 
                       __ZN12capabilities7updater23EUICCVinylSuccessStatusEv, __ZN12capabilities7updater23kKeyDDRDataMaxSizeBytesE, 
                       __ZN12capabilities7updater23kKeyGetUpdateSourceTypeE, __ZN12capabilities7updater23kKeySupportsEUICCUpdateE, 
                       __ZN12capabilities7updater23kKeySupportsXblCfgImageE, __ZN12capabilities7updater23manifestCheckRetryCountEv, 
                       __ZN12capabilities7updater23repersonalizeLimitCountEv, __ZN12capabilities7updater23supportsXblSupportImageEv, 
                       __ZN12capabilities7updater24kKeyBBUFSPartitionSizeMBE, __ZN12capabilities7updater24kKeyGetCommunicationTypeE, 
                       __ZN12capabilities7updater24kKeyGetFusingProgramTypeE, __ZN12capabilities7updater24kKeyLoaderCommandTimeoutE, 
                       __ZN12capabilities7updater24kKeySupportsProvisioningE, __ZN12capabilities7updater25kKeyGetInitializerVersionE, 
                       __ZN12capabilities7updater25kKeyLoaderConnectAttemptsE, __ZN12capabilities7updater25kKeySupportsDDRDataSavingE, 
                       __ZN12capabilities7updater25kKeySupportsMHIBootLoggerE, __ZN12capabilities7updater25supportsDualIMEIProvisionEv, 
                       __ZN12capabilities7updater25supportsNVSettingOQCMagicEv, __ZN12capabilities7updater25supportsSingleStageFusingEv, 
                       __ZN12capabilities7updater26kKeyShouldBailOnEUICCErrorE, __ZN12capabilities7updater26kKeyShouldStripFDRDataOnAPE, 
                       __ZN12capabilities7updater26provisioningCommandTimeoutEv, 
                       __ZN12capabilities7updater26shouldResetToPBLAfterResetEv, 
                       __ZN12capabilities7updater26supportsEUICCGSMAMasteringEh, 
                       __ZN12capabilities7updater27kKeyEUICCVinylSuccessStatusE, 
                       __ZN12capabilities7updater27kKeyManifestCheckRetryCountE, 
                       __ZN12capabilities7updater27kKeyRepersonalizeLimitCountE, 
                       __ZN12capabilities7updater27kKeySupportsXblSupportImageE, 
                       __ZN12capabilities7updater27shouldSkipRestoreForUnfusedEv, 
                       __ZN12capabilities7updater27shouldWaitForReadyAfterBootEv, 
                       __ZN12capabilities7updater28getBasebandMigrationDataTypeEv, 
                       __ZN12capabilities7updater28getPersonalizationParametersEv, 
                       __ZN12capabilities7updater28initialStagePingAttemptCountEv, 
                       __ZN12capabilities7updater28shouldBailOnNoManifestHashesEv, 
                       __ZN12capabilities7updater29getLoaderProgressBarTimesTypeEv, 
                       __ZN12capabilities7updater29intermittentFailureRetryCountEv, 
                       __ZN12capabilities7updater29kKeySupportsDualIMEIProvisionE, 
                       __ZN12capabilities7updater29kKeySupportsNVSettingOQCMagicE, 
                       __ZN12capabilities7updater29kKeySupportsSingleStageFusingE, 
                       __ZN12capabilities7updater29personalizationCommandTimeoutEv, 
                       __ZN12capabilities7updater30kKeyProvisioningCommandTimeoutE, 
                       __ZN12capabilities7updater30kKeyShouldResetToPBLAfterResetE, 
                       __ZN12capabilities7updater30shouldRetryBootOnUpdateFailureEv, 
                       __ZN12capabilities7updater31kKeyShouldSkipRestoreForUnfusedE, 
                       __ZN12capabilities7updater31kKeyShouldWaitForReadyAfterBootE, 
                       __ZN12capabilities7updater31shouldOnlySyncDynamicOnShutdownEv, 
                       __ZN12capabilities7updater31shouldRecreateTransportAfterPBLEv, 
                       __ZN12capabilities7updater32kKeyGetBasebandMigrationDataTypeE, 
                       __ZN12capabilities7updater32kKeyGetPersonalizationParametersE, 
                       __ZN12capabilities7updater32kKeyInitialStagePingAttemptCountE, 
                       __ZN12capabilities7updater32kKeyShouldBailOnNoManifestHashesE, 
                       __ZN12capabilities7updater33getProgrammerProgressBarTimesTypeEv, 
                       __ZN12capabilities7updater33kKeyGetLoaderProgressBarTimesTypeE, 
                       __ZN12capabilities7updater33kKeyIntermittentFailureRetryCountE, 
                       __ZN12capabilities7updater33kKeyPersonalizationCommandTimeoutE, 
                       __ZN12capabilities7updater34kKeyShouldRetryBootOnUpdateFailureE, 
                       __ZN12capabilities7updater34shouldFDRDataInstanceIncludeChipIDEv, 
                       __ZN12capabilities7updater35kKeyShouldOnlySyncDynamicOnShutdownE, 
                       __ZN12capabilities7updater35kKeyShouldRecreateTransportAfterPBLE, 
                       __ZN12capabilities7updater37kKeyGetProgrammerProgressBarTimesTypeE, 
                       __ZN12capabilities7updater37supportsFATPCalibrationManifestStatusEv, 
                       __ZN12capabilities7updater38kKeyShouldFDRDataInstanceIncludeChipIDE, 
                       __ZN12capabilities7updater41kKeySupportsFATPCalibrationManifestStatusE, 
                       __ZN12capabilities7updater7hasMEIDEv, __ZN12capabilities7updater8asStringENS0_10DEVCFGTypeE, 
                       __ZN12capabilities7updater8asStringENS0_10DigestTypeE, __ZN12capabilities7updater8asStringENS0_10FusingTypeE, 
                       __ZN12capabilities7updater8asStringENS0_10LoaderTypeE, __ZN12capabilities7updater8asStringENS0_10MDMDDRTypeE, 
                       __ZN12capabilities7updater8asStringENS0_10XblCfgTypeE, __ZN12capabilities7updater8asStringENS0_11NVMFileTypeE, 
                       __ZN12capabilities7updater8asStringENS0_11OEMMiscTypeE, __ZN12capabilities7updater8asStringENS0_11QDSP6SWTypeE, 
                       __ZN12capabilities7updater8asStringENS0_11QTIMiscTypeE, __ZN12capabilities7updater8asStringENS0_13TransportTypeE, 
                       __ZN12capabilities7updater8asStringENS0_14ProgrammerTypeE, 
                       __ZN12capabilities7updater8asStringENS0_14XblSupportTypeE, 
                       __ZN12capabilities7updater8asStringENS0_15FirmwareVersionE, 
                       __ZN12capabilities7updater8asStringENS0_15ProvisionerTypeE, 
                       __ZN12capabilities7updater8asStringENS0_16UpdateSourceTypeE, 
                       __ZN12capabilities7updater8asStringENS0_17CommunicationTypeE, 
                       __ZN12capabilities7updater8asStringENS0_17FusingProgramTypeE, 
                       __ZN12capabilities7updater8asStringENS0_18InitializerVersionE, 
                       __ZN12capabilities7updater8asStringENS0_25BasebandMigrationDataTypeE, 
                       __ZN12capabilities7updater8asStringENS0_26LoaderProgressBarTimesTypeE, 
                       __ZN12capabilities7updater8asStringENS0_29PersonalizationParametersTypeE, 
                       __ZN12capabilities7updater8asStringENS0_30ProgrammerProgressBarTimesTypeE, 
                       __ZN12capabilities7updater8asStringENS0_6TZTypeE, __ZN12capabilities7updater8asStringENS0_7AOPTypeE, 
                       __ZN12capabilities7updater8asStringENS0_7ActTypeE, __ZN12capabilities7updater8asStringENS0_7CalTypeE, 
                       __ZN12capabilities7updater8asStringENS0_7HYPTypeE, __ZN12capabilities7updater8asStringENS0_7MBATypeE, 
                       __ZN12capabilities7updater8asStringENS0_7PacTypeE, __ZN12capabilities7updater8asStringENS0_7RPMTypeE, 
                       __ZN12capabilities7updater8asStringENS0_7SBLTypeE, __ZN12capabilities7updater8asStringENS0_7SECTypeE, 
                       __ZN12capabilities7updater8asStringENS0_7WDTTypeE, __ZN12capabilities7updater8asStringENS0_8ACDBTypeE, 
                       __ZN12capabilities7updater8asStringENS0_8APDPTypeE, __ZN12capabilities7updater8asStringENS0_8APPSTypeE, 
                       __ZN12capabilities7updater8asStringENS0_8DSP3TypeE, __ZN12capabilities7updater8asStringENS0_8EFS1TypeE, 
                       __ZN12capabilities7updater8asStringENS0_8EFS2TypeE, __ZN12capabilities7updater8asStringENS0_8EFS3TypeE, 
                       __ZN12capabilities7updater8asStringENS0_8ProvTypeE, __ZN12capabilities7updater8asStringENS0_8UEFITypeE, 
                       __ZN12capabilities7updater8asStringENS0_9BBCFGTypeE, __ZN12capabilities7updater9getTZTypeEv, 
                       __ZN12capabilities7updater9pingDelayEv, __ZN12capabilities8coredump11captureTimeEv, 
                       __ZN12capabilities8coredump14commandTimeoutEv, __ZN12capabilities8coredump14getPersonalityEv, 
                       __ZN12capabilities8coredump15kKeyCaptureTimeE, __ZN12capabilities8coredump17coredumpInterfaceEv, 
                       __ZN12capabilities8coredump18kKeyCommandTimeoutE, __ZN12capabilities8coredump18kKeyGetPersonalityE, 
                       __ZN12capabilities8coredump20coredumpAttemptCountEv, __ZN12capabilities8coredump21kKeyCoredumpInterfaceE, 
                       __ZN12capabilities8coredump22supportsGPIOSignallingEv, __ZN12capabilities8coredump22supportsSPMISignallingEv, 
                       __ZN12capabilities8coredump24kKeyCoredumpAttemptCountE, __ZN12capabilities8coredump26kKeySupportsGPIOSignallingE, 
                       __ZN12capabilities8coredump26kKeySupportsSPMISignallingE, 
                       __ZN12capabilities8coredump32recoveryForControlMessageTimeoutEv, 
                       __ZN12capabilities8coredump36kKeyRecoveryForControlMessageTimeoutE, 
                       __ZN12capabilities8coredump8asStringENS0_29ControlMessageTimeoutRecoveryE, 
                       __ZN12capabilities8coredumpaNERNS0_29ControlMessageTimeoutRecoveryES1_, 
                       __ZN12capabilities8coredumpanENS0_29ControlMessageTimeoutRecoveryES1_, 
                       __ZN12capabilities8coredumpcoENS0_29ControlMessageTimeoutRecoveryE, 
                       __ZN12capabilities8coredumpeOERNS0_29ControlMessageTimeoutRecoveryES1_, 
                       __ZN12capabilities8coredumpeoENS0_29ControlMessageTimeoutRecoveryES1_, 
                       __ZN12capabilities8coredumpoRERNS0_29ControlMessageTimeoutRecoveryES1_, 
                       __ZN12capabilities8coredumporENS0_29ControlMessageTimeoutRecoveryES1_ ]
...
