--- !tapi-tbd
tbd-version:     4
targets:         [ x86_64-macos, arm64-macos, arm64e-macos ]
install-name:    '/System/Library/PrivateFrameworks/MLCompilerRuntime.framework/Versions/A/Libraries/libmlc_rt.dylib'
current-version: 0
compatibility-version: 0
exports:
  - targets:         [ x86_64-macos ]
    weak-symbols:    [ __ZTISt11logic_error, __ZTISt12length_error, __ZTISt12out_of_range, 
                       __ZTISt20bad_array_new_length, __ZTISt9bad_alloc, __ZTISt9exception, 
                       __ZTSSt11logic_error, __ZTSSt12length_error, __ZTSSt12out_of_range, 
                       __ZTSSt20bad_array_new_length, __ZTSSt9bad_alloc, __ZTSSt9exception ]
  - targets:         [ x86_64-macos, arm64-macos, arm64e-macos ]
    symbols:         [ __ZN3mlc11temp_file_tC1ERKNSt3__112basic_stringIcNS1_11char_traitsIcEENS1_9allocatorIcEEEEb, 
                       __ZN3mlc11temp_file_tC2ERKNSt3__112basic_stringIcNS1_11char_traitsIcEENS1_9allocatorIcEEEEb, 
                       __ZN3mlc11temp_file_tD0Ev, __ZN3mlc11temp_file_tD1Ev, __ZN3mlc11temp_file_tD2Ev, 
                       __ZN3mlc2rt3JIT13create_orcjitERNS_8errors_tE, __ZN4llvm4Loop10LoopBounds9getBoundsERKS0_RNS_7PHINodeERNS_15ScalarEvolutionE, 
                       __ZN4llvm4Loop19setLoopMustProgressEv, __ZN4llvm4Loop22setLoopAlreadyUnrolledEv, 
                       __ZN4llvm6Module10setUwtableEv, __ZN4llvm6Module11materializeEPNS_11GlobalValueE, 
                       __ZN4llvm6Module11setPICLevelENS_8PICLevel5LevelE, __ZN4llvm6Module11setPIELevelENS_8PIELevel5LevelE, 
                       __ZN4llvm6Module12setCodeModelENS_9CodeModel5ModelE, __ZN4llvm6Module13addModuleFlagENS0_15ModFlagBehaviorENS_9StringRefEPNS_8ConstantE, 
                       __ZN4llvm6Module13addModuleFlagENS0_15ModFlagBehaviorENS_9StringRefEPNS_8MetadataE, 
                       __ZN4llvm6Module13addModuleFlagENS0_15ModFlagBehaviorENS_9StringRefEj, 
                       __ZN4llvm6Module13addModuleFlagEPNS_6MDNodeE, __ZN4llvm6Module13global_valuesEv, 
                       __ZN4llvm6Module13setDataLayoutENS_9StringRefE, __ZN4llvm6Module13setDataLayoutERKNS_10DataLayoutE, 
                       __ZN4llvm6Module13setModuleFlagENS0_15ModFlagBehaviorENS_9StringRefEPNS_8MetadataE, 
                       __ZN4llvm6Module13setSDKVersionERKNS_12VersionTupleE, __ZN4llvm6Module14global_objectsEv, 
                       __ZN4llvm6Module14materializeAllEv, __ZN4llvm6Module14setRtLibUseGOTEv, 
                       __ZN4llvm6Module15setFramePointerENS_16FramePointerKindE, 
                       __ZN4llvm6Module15setMaterializerEPNS_14GVMaterializerE, __ZN4llvm6Module17dropAllReferencesEv, 
                       __ZN4llvm6Module17getOrInsertComdatENS_9StringRefE, __ZN4llvm6Module17getOrInsertGlobalENS_9StringRefEPNS_4TypeE, 
                       __ZN4llvm6Module17getOrInsertGlobalENS_9StringRefEPNS_4TypeENS_12function_refIFPNS_14GlobalVariableEvEEE, 
                       __ZN4llvm6Module17isValidModuleFlagERKNS_6MDNodeERNS0_15ModFlagBehaviorERPNS_8MDStringERPNS_8MetadataE, 
                       __ZN4llvm6Module17setProfileSummaryEPNS_8MetadataENS_14ProfileSummary4KindE, 
                       __ZN4llvm6Module18eraseNamedMetadataEPNS_11NamedMDNodeE, __ZN4llvm6Module19getOrInsertFunctionENS_9StringRefEPNS_12FunctionTypeE, 
                       __ZN4llvm6Module19getOrInsertFunctionENS_9StringRefEPNS_12FunctionTypeENS_13AttributeListE, 
                       __ZN4llvm6Module19materializeMetadataEv, __ZN4llvm6Module20setOwnedMemoryBufferENSt3__110unique_ptrINS_12MemoryBufferENS1_14default_deleteIS3_EEEE, 
                       __ZN4llvm6Module20setPtrAuthABIVersionENS0_17PtrAuthABIVersionE, 
                       __ZN4llvm6Module22getUniqueIntrinsicNameENS_9StringRefEjPKNS_12FunctionTypeE, 
                       __ZN4llvm6Module22isValidModFlagBehaviorEPNS_8MetadataERNS0_15ModFlagBehaviorE, 
                       __ZN4llvm6Module22setStackProtectorGuardENS_9StringRefE, __ZN4llvm6Module24getOrInsertNamedMetadataENS_9StringRefE, 
                       __ZN4llvm6Module24setSemanticInterpositionEb, __ZN4llvm6Module25setOverrideStackAlignmentEj, 
                       __ZN4llvm6Module25setStackProtectorGuardRegENS_9StringRefE, 
                       __ZN4llvm6Module26setTargetVariantSDKVersionERKNS_12VersionTupleE, 
                       __ZN4llvm6Module28debug_compile_units_iterator14SkipNoDebugCUsEv, 
                       __ZN4llvm6Module28setPartialSampleProfileRatioERKNS_18ModuleSummaryIndexE, 
                       __ZN4llvm6Module28setStackProtectorGuardOffsetEi, __ZN4llvm6Module30getOrInsertModuleFlagsMetadataEv, 
                       __ZN4llvm6Module31dropTriviallyDeadConstantArraysEv, __ZN4llvm6ModuleC1ENS_9StringRefERNS_11LLVMContextE, 
                       __ZN4llvm6ModuleC2ENS_9StringRefERNS_11LLVMContextE, __ZN4llvm6ModuleD1Ev, 
                       __ZN4llvm6ModuleD2Ev, __ZN4llvm8Function10addFnAttrsERKNS_11AttrBuilderE, 
                       __ZN4llvm8Function10addRetAttrENS_9Attribute8AttrKindE, __ZN4llvm8Function10addRetAttrENS_9AttributeE, 
                       __ZN4llvm8Function11addRetAttrsERKNS_11AttrBuilderE, __ZN4llvm8Function12addParamAttrEjNS_9Attribute8AttrKindE, 
                       __ZN4llvm8Function12addParamAttrEjNS_9AttributeE, __ZN4llvm8Function12removeFnAttrENS_9Attribute8AttrKindE, 
                       __ZN4llvm8Function12removeFnAttrENS_9StringRefE, __ZN4llvm8Function13addParamAttrsEjRKNS_11AttrBuilderE, 
                       __ZN4llvm8Function13removeFnAttrsERKNS_11AttrBuilderE, __ZN4llvm8Function13removeRetAttrENS_9Attribute8AttrKindE, 
                       __ZN4llvm8Function13removeRetAttrENS_9StringRefE, __ZN4llvm8Function13setEntryCountENS0_12ProfileCountEPKNS_8DenseSetIyNS_12DenseMapInfoIyEEEE, 
                       __ZN4llvm8Function13setEntryCountEyNS0_16ProfileCountTypeEPKNS_8DenseSetIyNS_12DenseMapInfoIyEEEE, 
                       __ZN4llvm8Function13setPrefixDataEPNS_8ConstantE, __ZN4llvm8Function13setSubprogramEPNS_12DISubprogramE, 
                       __ZN4llvm8Function14clearArgumentsEv, __ZN4llvm8Function14removeRetAttrsERKNS_11AttrBuilderE, 
                       __ZN4llvm8Function15eraseFromParentEv, __ZN4llvm8Function15removeParamAttrEjNS_9Attribute8AttrKindE, 
                       __ZN4llvm8Function15removeParamAttrEjNS_9StringRefE, __ZN4llvm8Function15setPrologueDataEPNS_8ConstantE, 
                       __ZN4llvm8Function16removeFromParentEv, __ZN4llvm8Function16removeParamAttrsEjRKNS_11AttrBuilderE, 
                       __ZN4llvm8Function16setPersonalityFnEPNS_8ConstantE, __ZN4llvm8Function16setSectionPrefixENS_9StringRefE, 
                       __ZN4llvm8Function17dropAllReferencesEv, __ZN4llvm8Function17isTargetIntrinsicEj, 
                       __ZN4llvm8Function17lookupIntrinsicIDENS_9StringRefE, __ZN4llvm8Function18copyAttributesFromEPKS0_, 
                       __ZN4llvm8Function19addAttributeAtIndexEjNS_9AttributeE, __ZN4llvm8Function19allocHungoffUselistEv, 
                       __ZN4llvm8Function21createWithDefaultAttrEPNS_12FunctionTypeENS_11GlobalValue12LinkageTypesEjRKNS_5TwineEPNS_6ModuleE, 
                       __ZN4llvm8Function21stealArgumentListFromERS0_, __ZN4llvm8Function22recalculateIntrinsicIDEv, 
                       __ZN4llvm8Function22removeAttributeAtIndexEjNS_9Attribute8AttrKindE, 
                       __ZN4llvm8Function22removeAttributeAtIndexEjNS_9StringRefE, 
                       __ZN4llvm8Function23setValueSubclassDataBitEjb, __ZN4llvm8Function27addDereferenceableParamAttrEjy, 
                       __ZN4llvm8Function33addDereferenceableOrNullParamAttrEjy, 
                       __ZN4llvm8Function5setGCENSt3__112basic_stringIcNS1_11char_traitsIcEENS1_9allocatorIcEEEE, 
                       __ZN4llvm8Function6CreateEPNS_12FunctionTypeENS_11GlobalValue12LinkageTypesERKNS_5TwineERNS_6ModuleE, 
                       __ZN4llvm8Function7clearGCEv, __ZN4llvm8Function9addFnAttrENS_9Attribute8AttrKindE, 
                       __ZN4llvm8Function9addFnAttrENS_9AttributeE, __ZN4llvm8Function9addFnAttrENS_9StringRefES1_, 
                       __ZN4llvm8FunctionC1EPNS_12FunctionTypeENS_11GlobalValue12LinkageTypesEjRKNS_5TwineEPNS_6ModuleE, 
                       __ZN4llvm8FunctionC2EPNS_12FunctionTypeENS_11GlobalValue12LinkageTypesEjRKNS_5TwineEPNS_6ModuleE, 
                       __ZN4llvm8FunctionD1Ev, __ZN4llvm8FunctionD2Ev, __ZN4llvm8LoopNest11getLoopNestERNS_4LoopERNS_15ScalarEvolutionE, 
                       __ZN4llvm8LoopNest18arePerfectlyNestedERKNS_4LoopES3_RNS_15ScalarEvolutionE, 
                       __ZN4llvm8LoopNest18getMaxPerfectDepthERKNS_4LoopERNS_15ScalarEvolutionE, 
                       __ZN4llvm8LoopNest19skipEmptyBlockUntilEPKNS_10BasicBlockES3_b, 
                       __ZN4llvm8LoopNest26getInterveningInstructionsERKNS_4LoopES3_RNS_15ScalarEvolutionE, 
                       __ZN4llvm8LoopNest29analyzeLoopNestForPerfectNestERKNS_4LoopES3_RNS_15ScalarEvolutionE, 
                       __ZN4llvm8LoopNestC1ERNS_4LoopERNS_15ScalarEvolutionE, __ZN4llvm8LoopNestC2ERNS_4LoopERNS_15ScalarEvolutionE, 
                       __ZN6OrcJIT29load_object_and_lookup_symbolEPKvmRKNSt3__112basic_stringIcNS2_11char_traitsIcEENS2_9allocatorIcEEEE, 
                       __ZNK3mlc11temp_file_t8filenameEv, __ZNK4llvm4Loop10LoopBounds12getDirectionEv, 
                       __ZNK4llvm4Loop10LoopBounds21getCanonicalPredicateEv, __ZNK4llvm4Loop11getLocRangeEv, 
                       __ZNK4llvm4Loop11getStartLocEv, __ZNK4llvm4Loop11isCanonicalERNS_15ScalarEvolutionE, 
                       __ZNK4llvm4Loop11isLCSSAFormERKNS_13DominatorTreeE, __ZNK4llvm4Loop13isSafeToCloneEv, 
                       __ZNK4llvm4Loop15getLatchCmpInstEv, __ZNK4llvm4Loop15isLoopInvariantEPKNS_5ValueE, 
                       __ZNK4llvm4Loop17makeLoopInvariantEPNS_11InstructionERbS2_PNS_16MemorySSAUpdaterE, 
                       __ZNK4llvm4Loop17makeLoopInvariantEPNS_5ValueERbPNS_11InstructionEPNS_16MemorySSAUpdaterE, 
                       __ZNK4llvm4Loop18getLoopGuardBranchEv, __ZNK4llvm4Loop18isLoopSimplifyFormEv, 
                       __ZNK4llvm4Loop19isAnnotatedParallelEv, __ZNK4llvm4Loop20getInductionVariableERNS_15ScalarEvolutionE, 
                       __ZNK4llvm4Loop22getIncomingAndBackEdgeERPNS_10BasicBlockES3_, 
                       __ZNK4llvm4Loop22getInductionDescriptorERNS_15ScalarEvolutionERNS_19InductionDescriptorE, 
                       __ZNK4llvm4Loop22isRecursivelyLCSSAFormERKNS_13DominatorTreeERKNS_8LoopInfoE, 
                       __ZNK4llvm4Loop24hasLoopInvariantOperandsEPKNS_11InstructionE, 
                       __ZNK4llvm4Loop28isAuxiliaryInductionVariableERNS_7PHINodeERNS_15ScalarEvolutionE, 
                       __ZNK4llvm4Loop29getCanonicalInductionVariableEv, __ZNK4llvm4Loop9getBoundsERNS_15ScalarEvolutionE, 
                       __ZNK4llvm4Loop9getLoopIDEv, __ZNK4llvm4Loop9setLoopIDEPNS_6MDNodeE, 
                       __ZNK4llvm6Module10getUwtableEv, __ZNK4llvm6Module11getFunctionENS_9StringRefE, 
                       __ZNK4llvm6Module11getMDKindIDENS_9StringRefE, __ZNK4llvm6Module11getPICLevelEv, 
                       __ZNK4llvm6Module11getPIELevelEv, __ZNK4llvm6Module12getCodeModelEv, 
                       __ZNK4llvm6Module13getDataLayoutEv, __ZNK4llvm6Module13getModuleFlagENS_9StringRefE, 
                       __ZNK4llvm6Module13getNamedAliasENS_9StringRefE, __ZNK4llvm6Module13getNamedIFuncENS_9StringRefE, 
                       __ZNK4llvm6Module13getNamedValueENS_9StringRefE, __ZNK4llvm6Module13getSDKVersionEv, 
                       __ZNK4llvm6Module13global_valuesEv, __ZNK4llvm6Module14getMDKindNamesERNS_15SmallVectorImplINS_9StringRefEEE, 
                       __ZNK4llvm6Module14getRtLibUseGOTEv, __ZNK4llvm6Module14global_objectsEv, 
                       __ZNK4llvm6Module15getCodeViewFlagEv, __ZNK4llvm6Module15getDwarfVersionEv, 
                       __ZNK4llvm6Module15getFramePointerEv, __ZNK4llvm6Module16getNamedMetadataERKNS_5TwineE, 
                       __ZNK4llvm6Module17getGlobalVariableENS_9StringRefEb, __ZNK4llvm6Module17getNumNamedValuesEv, 
                       __ZNK4llvm6Module17getProfileSummaryEb, __ZNK4llvm6Module19getInstructionCountEv, 
                       __ZNK4llvm6Module20getOperandBundleTagsERNS_15SmallVectorImplINS_9StringRefEEE, 
                       __ZNK4llvm6Module20getPtrAuthABIVersionEv, __ZNK4llvm6Module21getPtrAuthABIVersionsEv, 
                       __ZNK4llvm6Module22getModuleFlagsMetadataERNS_15SmallVectorImplINS0_15ModuleFlagEntryEEE, 
                       __ZNK4llvm6Module22getModuleFlagsMetadataEv, __ZNK4llvm6Module22getStackProtectorGuardEv, 
                       __ZNK4llvm6Module24getIdentifiedStructTypesEv, __ZNK4llvm6Module24getSemanticInterpositionEv, 
                       __ZNK4llvm6Module25getOverrideStackAlignmentEv, __ZNK4llvm6Module25getStackProtectorGuardRegEv, 
                       __ZNK4llvm6Module26getTargetVariantSDKVersionEv, __ZNK4llvm6Module27getNumberRegisterParametersEv, 
                       __ZNK4llvm6Module28debug_compile_units_iteratordeEv, __ZNK4llvm6Module28debug_compile_units_iteratorptEv, 
                       __ZNK4llvm6Module28getStackProtectorGuardOffsetEv, __ZNK4llvm6Module5printERNS_11raw_ostreamEPNS_24AssemblyAnnotationWriterEbb, 
                       __ZNK4llvm6Module9createRNGENS_9StringRefE, __ZNK4llvm6Module9isDwarf64Ev, 
                       __ZNK4llvm8Function10getContextEv, __ZNK4llvm8Function13getEntryCountEb, 
                       __ZNK4llvm8Function13getPrefixDataEv, __ZNK4llvm8Function13getSubprogramEv, 
                       __ZNK4llvm8Function14getFnAttributeENS_9Attribute8AttrKindE, 
                       __ZNK4llvm8Function14getFnAttributeENS_9StringRefE, __ZNK4llvm8Function14getImportGUIDsEv, 
                       __ZNK4llvm8Function14hasFnAttributeENS_9Attribute8AttrKindE, 
                       __ZNK4llvm8Function14hasFnAttributeENS_9StringRefE, __ZNK4llvm8Function15getDenormalModeERKNS_12fltSemanticsE, 
                       __ZNK4llvm8Function15getPrologueDataEv, __ZNK4llvm8Function15hasAddressTakenEPPKNS_4UserEbbbb, 
                       __ZNK4llvm8Function15hasRetAttributeENS_9Attribute8AttrKindE, 
                       __ZNK4llvm8Function16getPersonalityFnEv, __ZNK4llvm8Function16getSectionPrefixEv, 
                       __ZNK4llvm8Function17getParamAttributeEjNS_9Attribute8AttrKindE, 
                       __ZNK4llvm8Function17hasParamAttributeEjNS_9Attribute8AttrKindE, 
                       __ZNK4llvm8Function17isTargetIntrinsicEv, __ZNK4llvm8Function18BuildLazyArgumentsEv, 
                       __ZNK4llvm8Function18isDefTriviallyDeadEv, __ZNK4llvm8Function19getAttributeAtIndexEjNS_9Attribute8AttrKindE, 
                       __ZNK4llvm8Function19getAttributeAtIndexEjNS_9StringRefE, 
                       __ZNK4llvm8Function19getInstructionCountEv, __ZNK4llvm8Function20nullPointerIsDefinedEv, 
                       __ZNK4llvm8Function23hasStackProtectorFnAttrEv, __ZNK4llvm8Function23isDebugInfoForProfilingEv, 
                       __ZNK4llvm8Function24isConstrainedFPIntrinsicEv, __ZNK4llvm8Function29callsFunctionThatReturnsTwiceEv, 
                       __ZNK4llvm8Function5getGCEv, __ZNK4llvm8Function5printERNS_11raw_ostreamEPNS_24AssemblyAnnotationWriterEbb, 
                       __ZNK4llvm8LoopNest15getPerfectLoopsERNS_15ScalarEvolutionE, 
                       __ZTCN3mlc11temp_file_tE0_NSt3__113basic_ostreamIcNS0_11char_traitsIcEEEE, 
                       __ZTCN3mlc11temp_file_tE0_NSt3__114basic_ofstreamIcNS0_11char_traitsIcEEEE, 
                       __ZTTN3mlc11temp_file_tE, __ZTV6OrcJIT, __ZTVN3mlc11temp_file_tE, 
                       __ZTv0_n24_N3mlc11temp_file_tD0Ev, __ZTv0_n24_N3mlc11temp_file_tD1Ev, 
                       _llvm_regcomp, _llvm_regerror, _llvm_regexec, _llvm_regfree, 
                       _llvm_strlcpy ]
    weak-symbols:    [ __ZN4llvm3Any6TypeIdIPKNS_6ModuleEE2IdE, __ZN4llvm3Any6TypeIdIPKNS_8FunctionEE2IdE ]
...
